

Microchip Technology PIC LITE Macro Assembler V1.45 build -152302408 
                                                                                               Tue Jun 11 13:49:56 2019

Microchip Technology Omniscient Code Generator v1.45 (Free mode) build 201711160504
     1                           	processor	16F1788
     2                           	opt	pw 120
     3                           	opt	lm
     4                           	psect	idataBANK0,global,class=CODE,delta=2
     5                           	psect	nvBANK0,global,class=BANK0,space=1,delta=1
     6                           	psect	stringtext1,global,class=STRCODE,delta=2
     7                           	psect	stringtext2,global,class=STRCODE,delta=2
     8                           	psect	cinit,global,class=CODE,merge=1,delta=2
     9                           	psect	bssCOMMON,global,class=COMMON,space=1,delta=1
    10                           	psect	bssBANK0,global,class=BANK0,space=1,delta=1
    11                           	psect	dataBANK0,global,class=BANK0,space=1,delta=1
    12                           	psect	bssBANK1,global,class=BANK1,space=1,delta=1
    13                           	psect	inittext,global,class=CODE,delta=2
    14                           	psect	clrtext,global,class=CODE,delta=2
    15                           	psect	cstackCOMMON,global,class=COMMON,space=1,delta=1
    16                           	psect	cstackBANK0,global,class=BANK0,space=1,delta=1
    17                           	psect	maintext,global,class=CODE,merge=1,split=1,delta=2
    18                           	psect	text1,local,class=CODE,merge=1,delta=2
    19                           	psect	text2,local,class=CODE,merge=1,delta=2
    20                           	psect	text3,local,class=CODE,merge=1,delta=2
    21                           	psect	text4,local,class=CODE,merge=1,delta=2
    22                           	psect	text5,local,class=CODE,merge=1,delta=2
    23                           	psect	text6,local,class=CODE,merge=1,delta=2
    24                           	psect	text7,local,class=CODE,merge=1,delta=2
    25                           	psect	text8,local,class=CODE,merge=1,delta=2
    26                           	psect	text9,local,class=CODE,merge=1,delta=2
    27                           	psect	text10,local,class=CODE,merge=1,delta=2
    28                           	psect	intentry,global,class=CODE,delta=2
    29                           	psect	text12,local,class=CODE,merge=1,delta=2
    30                           	dabs	1,0x7E,2
    31  0000                     
    32                           ; Version 1.45
    33                           ; Generated 16/11/2017 GMT
    34                           ; 
    35                           ; Copyright © 2017, Microchip Technology Inc. and its subsidiaries ("Microchip")
    36                           ; All rights reserved.
    37                           ; 
    38                           ; This software is developed by Microchip Technology Inc. and its subsidiaries ("Microch
      +                          ip").
    39                           ; 
    40                           ; Redistribution and use in source and binary forms, with or without modification, are
    41                           ; permitted provided that the following conditions are met:
    42                           ; 
    43                           ;     1. Redistributions of source code must retain the above copyright notice, this lis
      +                          t of
    44                           ;        conditions and the following disclaimer.
    45                           ; 
    46                           ;     2. Redistributions in binary form must reproduce the above copyright notice, this 
      +                          list
    47                           ;        of conditions and the following disclaimer in the documentation and/or other
    48                           ;        materials provided with the distribution.
    49                           ; 
    50                           ;     3. Microchip's name may not be used to endorse or promote products derived from th
      +                          is
    51                           ;        software without specific prior written permission.
    52                           ; 
    53                           ; THIS SOFTWARE IS PROVIDED BY MICROCHIP "AS IS" AND ANY EXPRESS OR IMPLIED WARRANTIES,
    54                           ; INCLUDING, BUT NOT LIMITED TO, THE IMPLIED WARRANTIES OF MERCHANTABILITY AND FITNESS F
      +                          OR
    55                           ; PURPOSE ARE DISCLAIMED.  IN NO EVENT SHALL MICROCHIP BE LIABLE FOR ANY DIRECT, INDIREC
      +                          T,
    56                           ; INCIDENTAL, SPECIAL, EXEMPLARY, OR CONSEQUENTIAL DAMAGES (INCLUDING BUT NOT LIMITED TO
    57                           ; PROCUREMENT OF SUBSTITUTE GOODS OR SERVICES; LOSS OF USE, DATA OR PROFITS; OR BUSINESS
    58                           ; INTERRUPTION) HOWSOEVER CAUSED AND ON ANY THEORY OF LIABILITY, WHETHER IN CONTRACT, ST
      +                          RICT
    59                           ; LIABILITY, OR TORT (INCLUDING NEGLIGENCE OR OTHERWISE) ARISING IN ANY WAY OUT OF THE U
      +                          SE OF
    60                           ; THIS SOFTWARE, EVEN IF ADVISED OF THE POSSIBILITY OF SUCH DAMAGE.
    61                           ; 
    62                           ; 
    63                           ; Code-generator required, PIC16F1788 Definitions
    64                           ; 
    65                           ; SFR Addresses
    66  0000                     	;# 
    67  0001                     	;# 
    68  0002                     	;# 
    69  0003                     	;# 
    70  0004                     	;# 
    71  0005                     	;# 
    72  0006                     	;# 
    73  0007                     	;# 
    74  0008                     	;# 
    75  0009                     	;# 
    76  000A                     	;# 
    77  000B                     	;# 
    78  000C                     	;# 
    79  000D                     	;# 
    80  000E                     	;# 
    81  0010                     	;# 
    82  0011                     	;# 
    83  0012                     	;# 
    84  0013                     	;# 
    85  0014                     	;# 
    86  0015                     	;# 
    87  0016                     	;# 
    88  0016                     	;# 
    89  0017                     	;# 
    90  0018                     	;# 
    91  0019                     	;# 
    92  001A                     	;# 
    93  001B                     	;# 
    94  001C                     	;# 
    95  008C                     	;# 
    96  008D                     	;# 
    97  008E                     	;# 
    98  0090                     	;# 
    99  0091                     	;# 
   100  0092                     	;# 
   101  0093                     	;# 
   102  0094                     	;# 
   103  0095                     	;# 
   104  0096                     	;# 
   105  0097                     	;# 
   106  0098                     	;# 
   107  0099                     	;# 
   108  009A                     	;# 
   109  009B                     	;# 
   110  009B                     	;# 
   111  009C                     	;# 
   112  009D                     	;# 
   113  009E                     	;# 
   114  009F                     	;# 
   115  010C                     	;# 
   116  010D                     	;# 
   117  010E                     	;# 
   118  0111                     	;# 
   119  0112                     	;# 
   120  0113                     	;# 
   121  0114                     	;# 
   122  0115                     	;# 
   123  0116                     	;# 
   124  0117                     	;# 
   125  0118                     	;# 
   126  0119                     	;# 
   127  011A                     	;# 
   128  011B                     	;# 
   129  011C                     	;# 
   130  011D                     	;# 
   131  011D                     	;# 
   132  011D                     	;# 
   133  011E                     	;# 
   134  011F                     	;# 
   135  018C                     	;# 
   136  018D                     	;# 
   137  018E                     	;# 
   138  0191                     	;# 
   139  0191                     	;# 
   140  0192                     	;# 
   141  0193                     	;# 
   142  0193                     	;# 
   143  0193                     	;# 
   144  0194                     	;# 
   145  0195                     	;# 
   146  0196                     	;# 
   147  0197                     	;# 
   148  0199                     	;# 
   149  0199                     	;# 
   150  0199                     	;# 
   151  019A                     	;# 
   152  019A                     	;# 
   153  019A                     	;# 
   154  019B                     	;# 
   155  019B                     	;# 
   156  019B                     	;# 
   157  019B                     	;# 
   158  019B                     	;# 
   159  019C                     	;# 
   160  019C                     	;# 
   161  019C                     	;# 
   162  019D                     	;# 
   163  019D                     	;# 
   164  019D                     	;# 
   165  019E                     	;# 
   166  019E                     	;# 
   167  019E                     	;# 
   168  019F                     	;# 
   169  019F                     	;# 
   170  019F                     	;# 
   171  019F                     	;# 
   172  019F                     	;# 
   173  020C                     	;# 
   174  020D                     	;# 
   175  020E                     	;# 
   176  0210                     	;# 
   177  0211                     	;# 
   178  0211                     	;# 
   179  0212                     	;# 
   180  0212                     	;# 
   181  0213                     	;# 
   182  0213                     	;# 
   183  0214                     	;# 
   184  0214                     	;# 
   185  0215                     	;# 
   186  0215                     	;# 
   187  0215                     	;# 
   188  0215                     	;# 
   189  0216                     	;# 
   190  0216                     	;# 
   191  0217                     	;# 
   192  0217                     	;# 
   193  028C                     	;# 
   194  028D                     	;# 
   195  028E                     	;# 
   196  0291                     	;# 
   197  0291                     	;# 
   198  0292                     	;# 
   199  0293                     	;# 
   200  0298                     	;# 
   201  0298                     	;# 
   202  0299                     	;# 
   203  029A                     	;# 
   204  030C                     	;# 
   205  030D                     	;# 
   206  030E                     	;# 
   207  0311                     	;# 
   208  0311                     	;# 
   209  0312                     	;# 
   210  0313                     	;# 
   211  038C                     	;# 
   212  038D                     	;# 
   213  038E                     	;# 
   214  0390                     	;# 
   215  0391                     	;# 
   216  0392                     	;# 
   217  0393                     	;# 
   218  0394                     	;# 
   219  0395                     	;# 
   220  0396                     	;# 
   221  0397                     	;# 
   222  0398                     	;# 
   223  0399                     	;# 
   224  039D                     	;# 
   225  039E                     	;# 
   226  039F                     	;# 
   227  0511                     	;# 
   228  0513                     	;# 
   229  051A                     	;# 
   230  0591                     	;# 
   231  0592                     	;# 
   232  0592                     	;# 
   233  0593                     	;# 
   234  0594                     	;# 
   235  0594                     	;# 
   236  0595                     	;# 
   237  0596                     	;# 
   238  0596                     	;# 
   239  0E91                     	;# 
   240  0E92                     	;# 
   241  0E93                     	;# 
   242  0E94                     	;# 
   243  0E95                     	;# 
   244  0E96                     	;# 
   245  0E97                     	;# 
   246  0E98                     	;# 
   247  0E99                     	;# 
   248  0E9A                     	;# 
   249  0E9B                     	;# 
   250  0E9C                     	;# 
   251  0E9D                     	;# 
   252  0E9E                     	;# 
   253  0E9F                     	;# 
   254  0EA0                     	;# 
   255  0EA1                     	;# 
   256  0EA1                     	;# 
   257  0EA2                     	;# 
   258  0EA3                     	;# 
   259  0EA3                     	;# 
   260  0EA4                     	;# 
   261  0EA5                     	;# 
   262  0EA5                     	;# 
   263  0EA6                     	;# 
   264  0EA7                     	;# 
   265  0EA7                     	;# 
   266  0EA8                     	;# 
   267  0EA9                     	;# 
   268  0EAA                     	;# 
   269  0EAB                     	;# 
   270  0EAC                     	;# 
   271  0EAD                     	;# 
   272  0EAE                     	;# 
   273  0EAF                     	;# 
   274  0EB1                     	;# 
   275  0EB2                     	;# 
   276  0EB3                     	;# 
   277  0EB4                     	;# 
   278  0EB5                     	;# 
   279  0EB6                     	;# 
   280  0EB7                     	;# 
   281  0EB8                     	;# 
   282  0EB9                     	;# 
   283  0EBA                     	;# 
   284  0EBB                     	;# 
   285  0EBC                     	;# 
   286  0EBD                     	;# 
   287  0EBE                     	;# 
   288  0EBF                     	;# 
   289  0EC0                     	;# 
   290  0EC1                     	;# 
   291  0EC1                     	;# 
   292  0EC2                     	;# 
   293  0EC3                     	;# 
   294  0EC3                     	;# 
   295  0EC4                     	;# 
   296  0EC5                     	;# 
   297  0EC5                     	;# 
   298  0EC6                     	;# 
   299  0EC7                     	;# 
   300  0EC7                     	;# 
   301  0EC8                     	;# 
   302  0EC9                     	;# 
   303  0ECA                     	;# 
   304  0ECB                     	;# 
   305  0ECC                     	;# 
   306  0ECD                     	;# 
   307  0ECE                     	;# 
   308  0ECF                     	;# 
   309  0ED1                     	;# 
   310  0ED2                     	;# 
   311  0ED3                     	;# 
   312  0ED4                     	;# 
   313  0ED5                     	;# 
   314  0ED6                     	;# 
   315  0ED7                     	;# 
   316  0ED8                     	;# 
   317  0ED9                     	;# 
   318  0EDA                     	;# 
   319  0EDB                     	;# 
   320  0EDC                     	;# 
   321  0EDD                     	;# 
   322  0EDE                     	;# 
   323  0EDF                     	;# 
   324  0EE0                     	;# 
   325  0EE1                     	;# 
   326  0EE1                     	;# 
   327  0EE2                     	;# 
   328  0EE3                     	;# 
   329  0EE3                     	;# 
   330  0EE4                     	;# 
   331  0EE5                     	;# 
   332  0EE5                     	;# 
   333  0EE6                     	;# 
   334  0EE7                     	;# 
   335  0EE7                     	;# 
   336  0EE8                     	;# 
   337  0EE9                     	;# 
   338  0EEA                     	;# 
   339  0EEB                     	;# 
   340  0EEC                     	;# 
   341  0EED                     	;# 
   342  0EEE                     	;# 
   343  0EEF                     	;# 
   344  0F11                     	;# 
   345  0F12                     	;# 
   346  0F13                     	;# 
   347  0F14                     	;# 
   348  0F15                     	;# 
   349  0F16                     	;# 
   350  0F17                     	;# 
   351  0F18                     	;# 
   352  0F19                     	;# 
   353  0F1A                     	;# 
   354  0F1B                     	;# 
   355  0F1C                     	;# 
   356  0F1D                     	;# 
   357  0F1E                     	;# 
   358  0F1F                     	;# 
   359  0F20                     	;# 
   360  0F21                     	;# 
   361  0F21                     	;# 
   362  0F22                     	;# 
   363  0F23                     	;# 
   364  0F23                     	;# 
   365  0F24                     	;# 
   366  0F25                     	;# 
   367  0F25                     	;# 
   368  0F26                     	;# 
   369  0F27                     	;# 
   370  0F27                     	;# 
   371  0F28                     	;# 
   372  0F29                     	;# 
   373  0F2A                     	;# 
   374  0F2B                     	;# 
   375  0F2C                     	;# 
   376  0F2D                     	;# 
   377  0F2E                     	;# 
   378  0F2F                     	;# 
   379  0FE4                     	;# 
   380  0FE5                     	;# 
   381  0FE6                     	;# 
   382  0FE7                     	;# 
   383  0FE8                     	;# 
   384  0FE9                     	;# 
   385  0FEA                     	;# 
   386  0FEB                     	;# 
   387  0FED                     	;# 
   388  0FEE                     	;# 
   389  0FEF                     	;# 
   390  0000                     	;# 
   391  0001                     	;# 
   392  0002                     	;# 
   393  0003                     	;# 
   394  0004                     	;# 
   395  0005                     	;# 
   396  0006                     	;# 
   397  0007                     	;# 
   398  0008                     	;# 
   399  0009                     	;# 
   400  000A                     	;# 
   401  000B                     	;# 
   402  000C                     	;# 
   403  000D                     	;# 
   404  000E                     	;# 
   405  0010                     	;# 
   406  0011                     	;# 
   407  0012                     	;# 
   408  0013                     	;# 
   409  0014                     	;# 
   410  0015                     	;# 
   411  0016                     	;# 
   412  0016                     	;# 
   413  0017                     	;# 
   414  0018                     	;# 
   415  0019                     	;# 
   416  001A                     	;# 
   417  001B                     	;# 
   418  001C                     	;# 
   419  008C                     	;# 
   420  008D                     	;# 
   421  008E                     	;# 
   422  0090                     	;# 
   423  0091                     	;# 
   424  0092                     	;# 
   425  0093                     	;# 
   426  0094                     	;# 
   427  0095                     	;# 
   428  0096                     	;# 
   429  0097                     	;# 
   430  0098                     	;# 
   431  0099                     	;# 
   432  009A                     	;# 
   433  009B                     	;# 
   434  009B                     	;# 
   435  009C                     	;# 
   436  009D                     	;# 
   437  009E                     	;# 
   438  009F                     	;# 
   439  010C                     	;# 
   440  010D                     	;# 
   441  010E                     	;# 
   442  0111                     	;# 
   443  0112                     	;# 
   444  0113                     	;# 
   445  0114                     	;# 
   446  0115                     	;# 
   447  0116                     	;# 
   448  0117                     	;# 
   449  0118                     	;# 
   450  0119                     	;# 
   451  011A                     	;# 
   452  011B                     	;# 
   453  011C                     	;# 
   454  011D                     	;# 
   455  011D                     	;# 
   456  011D                     	;# 
   457  011E                     	;# 
   458  011F                     	;# 
   459  018C                     	;# 
   460  018D                     	;# 
   461  018E                     	;# 
   462  0191                     	;# 
   463  0191                     	;# 
   464  0192                     	;# 
   465  0193                     	;# 
   466  0193                     	;# 
   467  0193                     	;# 
   468  0194                     	;# 
   469  0195                     	;# 
   470  0196                     	;# 
   471  0197                     	;# 
   472  0199                     	;# 
   473  0199                     	;# 
   474  0199                     	;# 
   475  019A                     	;# 
   476  019A                     	;# 
   477  019A                     	;# 
   478  019B                     	;# 
   479  019B                     	;# 
   480  019B                     	;# 
   481  019B                     	;# 
   482  019B                     	;# 
   483  019C                     	;# 
   484  019C                     	;# 
   485  019C                     	;# 
   486  019D                     	;# 
   487  019D                     	;# 
   488  019D                     	;# 
   489  019E                     	;# 
   490  019E                     	;# 
   491  019E                     	;# 
   492  019F                     	;# 
   493  019F                     	;# 
   494  019F                     	;# 
   495  019F                     	;# 
   496  019F                     	;# 
   497  020C                     	;# 
   498  020D                     	;# 
   499  020E                     	;# 
   500  0210                     	;# 
   501  0211                     	;# 
   502  0211                     	;# 
   503  0212                     	;# 
   504  0212                     	;# 
   505  0213                     	;# 
   506  0213                     	;# 
   507  0214                     	;# 
   508  0214                     	;# 
   509  0215                     	;# 
   510  0215                     	;# 
   511  0215                     	;# 
   512  0215                     	;# 
   513  0216                     	;# 
   514  0216                     	;# 
   515  0217                     	;# 
   516  0217                     	;# 
   517  028C                     	;# 
   518  028D                     	;# 
   519  028E                     	;# 
   520  0291                     	;# 
   521  0291                     	;# 
   522  0292                     	;# 
   523  0293                     	;# 
   524  0298                     	;# 
   525  0298                     	;# 
   526  0299                     	;# 
   527  029A                     	;# 
   528  030C                     	;# 
   529  030D                     	;# 
   530  030E                     	;# 
   531  0311                     	;# 
   532  0311                     	;# 
   533  0312                     	;# 
   534  0313                     	;# 
   535  038C                     	;# 
   536  038D                     	;# 
   537  038E                     	;# 
   538  0390                     	;# 
   539  0391                     	;# 
   540  0392                     	;# 
   541  0393                     	;# 
   542  0394                     	;# 
   543  0395                     	;# 
   544  0396                     	;# 
   545  0397                     	;# 
   546  0398                     	;# 
   547  0399                     	;# 
   548  039D                     	;# 
   549  039E                     	;# 
   550  039F                     	;# 
   551  0511                     	;# 
   552  0513                     	;# 
   553  051A                     	;# 
   554  0591                     	;# 
   555  0592                     	;# 
   556  0592                     	;# 
   557  0593                     	;# 
   558  0594                     	;# 
   559  0594                     	;# 
   560  0595                     	;# 
   561  0596                     	;# 
   562  0596                     	;# 
   563  0E91                     	;# 
   564  0E92                     	;# 
   565  0E93                     	;# 
   566  0E94                     	;# 
   567  0E95                     	;# 
   568  0E96                     	;# 
   569  0E97                     	;# 
   570  0E98                     	;# 
   571  0E99                     	;# 
   572  0E9A                     	;# 
   573  0E9B                     	;# 
   574  0E9C                     	;# 
   575  0E9D                     	;# 
   576  0E9E                     	;# 
   577  0E9F                     	;# 
   578  0EA0                     	;# 
   579  0EA1                     	;# 
   580  0EA1                     	;# 
   581  0EA2                     	;# 
   582  0EA3                     	;# 
   583  0EA3                     	;# 
   584  0EA4                     	;# 
   585  0EA5                     	;# 
   586  0EA5                     	;# 
   587  0EA6                     	;# 
   588  0EA7                     	;# 
   589  0EA7                     	;# 
   590  0EA8                     	;# 
   591  0EA9                     	;# 
   592  0EAA                     	;# 
   593  0EAB                     	;# 
   594  0EAC                     	;# 
   595  0EAD                     	;# 
   596  0EAE                     	;# 
   597  0EAF                     	;# 
   598  0EB1                     	;# 
   599  0EB2                     	;# 
   600  0EB3                     	;# 
   601  0EB4                     	;# 
   602  0EB5                     	;# 
   603  0EB6                     	;# 
   604  0EB7                     	;# 
   605  0EB8                     	;# 
   606  0EB9                     	;# 
   607  0EBA                     	;# 
   608  0EBB                     	;# 
   609  0EBC                     	;# 
   610  0EBD                     	;# 
   611  0EBE                     	;# 
   612  0EBF                     	;# 
   613  0EC0                     	;# 
   614  0EC1                     	;# 
   615  0EC1                     	;# 
   616  0EC2                     	;# 
   617  0EC3                     	;# 
   618  0EC3                     	;# 
   619  0EC4                     	;# 
   620  0EC5                     	;# 
   621  0EC5                     	;# 
   622  0EC6                     	;# 
   623  0EC7                     	;# 
   624  0EC7                     	;# 
   625  0EC8                     	;# 
   626  0EC9                     	;# 
   627  0ECA                     	;# 
   628  0ECB                     	;# 
   629  0ECC                     	;# 
   630  0ECD                     	;# 
   631  0ECE                     	;# 
   632  0ECF                     	;# 
   633  0ED1                     	;# 
   634  0ED2                     	;# 
   635  0ED3                     	;# 
   636  0ED4                     	;# 
   637  0ED5                     	;# 
   638  0ED6                     	;# 
   639  0ED7                     	;# 
   640  0ED8                     	;# 
   641  0ED9                     	;# 
   642  0EDA                     	;# 
   643  0EDB                     	;# 
   644  0EDC                     	;# 
   645  0EDD                     	;# 
   646  0EDE                     	;# 
   647  0EDF                     	;# 
   648  0EE0                     	;# 
   649  0EE1                     	;# 
   650  0EE1                     	;# 
   651  0EE2                     	;# 
   652  0EE3                     	;# 
   653  0EE3                     	;# 
   654  0EE4                     	;# 
   655  0EE5                     	;# 
   656  0EE5                     	;# 
   657  0EE6                     	;# 
   658  0EE7                     	;# 
   659  0EE7                     	;# 
   660  0EE8                     	;# 
   661  0EE9                     	;# 
   662  0EEA                     	;# 
   663  0EEB                     	;# 
   664  0EEC                     	;# 
   665  0EED                     	;# 
   666  0EEE                     	;# 
   667  0EEF                     	;# 
   668  0F11                     	;# 
   669  0F12                     	;# 
   670  0F13                     	;# 
   671  0F14                     	;# 
   672  0F15                     	;# 
   673  0F16                     	;# 
   674  0F17                     	;# 
   675  0F18                     	;# 
   676  0F19                     	;# 
   677  0F1A                     	;# 
   678  0F1B                     	;# 
   679  0F1C                     	;# 
   680  0F1D                     	;# 
   681  0F1E                     	;# 
   682  0F1F                     	;# 
   683  0F20                     	;# 
   684  0F21                     	;# 
   685  0F21                     	;# 
   686  0F22                     	;# 
   687  0F23                     	;# 
   688  0F23                     	;# 
   689  0F24                     	;# 
   690  0F25                     	;# 
   691  0F25                     	;# 
   692  0F26                     	;# 
   693  0F27                     	;# 
   694  0F27                     	;# 
   695  0F28                     	;# 
   696  0F29                     	;# 
   697  0F2A                     	;# 
   698  0F2B                     	;# 
   699  0F2C                     	;# 
   700  0F2D                     	;# 
   701  0F2E                     	;# 
   702  0F2F                     	;# 
   703  0FE4                     	;# 
   704  0FE5                     	;# 
   705  0FE6                     	;# 
   706  0FE7                     	;# 
   707  0FE8                     	;# 
   708  0FE9                     	;# 
   709  0FEA                     	;# 
   710  0FEB                     	;# 
   711  0FED                     	;# 
   712  0FEE                     	;# 
   713  0FEF                     	;# 
   714  0000                     	;# 
   715  0001                     	;# 
   716  0002                     	;# 
   717  0003                     	;# 
   718  0004                     	;# 
   719  0005                     	;# 
   720  0006                     	;# 
   721  0007                     	;# 
   722  0008                     	;# 
   723  0009                     	;# 
   724  000A                     	;# 
   725  000B                     	;# 
   726  000C                     	;# 
   727  000D                     	;# 
   728  000E                     	;# 
   729  0010                     	;# 
   730  0011                     	;# 
   731  0012                     	;# 
   732  0013                     	;# 
   733  0014                     	;# 
   734  0015                     	;# 
   735  0016                     	;# 
   736  0016                     	;# 
   737  0017                     	;# 
   738  0018                     	;# 
   739  0019                     	;# 
   740  001A                     	;# 
   741  001B                     	;# 
   742  001C                     	;# 
   743  008C                     	;# 
   744  008D                     	;# 
   745  008E                     	;# 
   746  0090                     	;# 
   747  0091                     	;# 
   748  0092                     	;# 
   749  0093                     	;# 
   750  0094                     	;# 
   751  0095                     	;# 
   752  0096                     	;# 
   753  0097                     	;# 
   754  0098                     	;# 
   755  0099                     	;# 
   756  009A                     	;# 
   757  009B                     	;# 
   758  009B                     	;# 
   759  009C                     	;# 
   760  009D                     	;# 
   761  009E                     	;# 
   762  009F                     	;# 
   763  010C                     	;# 
   764  010D                     	;# 
   765  010E                     	;# 
   766  0111                     	;# 
   767  0112                     	;# 
   768  0113                     	;# 
   769  0114                     	;# 
   770  0115                     	;# 
   771  0116                     	;# 
   772  0117                     	;# 
   773  0118                     	;# 
   774  0119                     	;# 
   775  011A                     	;# 
   776  011B                     	;# 
   777  011C                     	;# 
   778  011D                     	;# 
   779  011D                     	;# 
   780  011D                     	;# 
   781  011E                     	;# 
   782  011F                     	;# 
   783  018C                     	;# 
   784  018D                     	;# 
   785  018E                     	;# 
   786  0191                     	;# 
   787  0191                     	;# 
   788  0192                     	;# 
   789  0193                     	;# 
   790  0193                     	;# 
   791  0193                     	;# 
   792  0194                     	;# 
   793  0195                     	;# 
   794  0196                     	;# 
   795  0197                     	;# 
   796  0199                     	;# 
   797  0199                     	;# 
   798  0199                     	;# 
   799  019A                     	;# 
   800  019A                     	;# 
   801  019A                     	;# 
   802  019B                     	;# 
   803  019B                     	;# 
   804  019B                     	;# 
   805  019B                     	;# 
   806  019B                     	;# 
   807  019C                     	;# 
   808  019C                     	;# 
   809  019C                     	;# 
   810  019D                     	;# 
   811  019D                     	;# 
   812  019D                     	;# 
   813  019E                     	;# 
   814  019E                     	;# 
   815  019E                     	;# 
   816  019F                     	;# 
   817  019F                     	;# 
   818  019F                     	;# 
   819  019F                     	;# 
   820  019F                     	;# 
   821  020C                     	;# 
   822  020D                     	;# 
   823  020E                     	;# 
   824  0210                     	;# 
   825  0211                     	;# 
   826  0211                     	;# 
   827  0212                     	;# 
   828  0212                     	;# 
   829  0213                     	;# 
   830  0213                     	;# 
   831  0214                     	;# 
   832  0214                     	;# 
   833  0215                     	;# 
   834  0215                     	;# 
   835  0215                     	;# 
   836  0215                     	;# 
   837  0216                     	;# 
   838  0216                     	;# 
   839  0217                     	;# 
   840  0217                     	;# 
   841  028C                     	;# 
   842  028D                     	;# 
   843  028E                     	;# 
   844  0291                     	;# 
   845  0291                     	;# 
   846  0292                     	;# 
   847  0293                     	;# 
   848  0298                     	;# 
   849  0298                     	;# 
   850  0299                     	;# 
   851  029A                     	;# 
   852  030C                     	;# 
   853  030D                     	;# 
   854  030E                     	;# 
   855  0311                     	;# 
   856  0311                     	;# 
   857  0312                     	;# 
   858  0313                     	;# 
   859  038C                     	;# 
   860  038D                     	;# 
   861  038E                     	;# 
   862  0390                     	;# 
   863  0391                     	;# 
   864  0392                     	;# 
   865  0393                     	;# 
   866  0394                     	;# 
   867  0395                     	;# 
   868  0396                     	;# 
   869  0397                     	;# 
   870  0398                     	;# 
   871  0399                     	;# 
   872  039D                     	;# 
   873  039E                     	;# 
   874  039F                     	;# 
   875  0511                     	;# 
   876  0513                     	;# 
   877  051A                     	;# 
   878  0591                     	;# 
   879  0592                     	;# 
   880  0592                     	;# 
   881  0593                     	;# 
   882  0594                     	;# 
   883  0594                     	;# 
   884  0595                     	;# 
   885  0596                     	;# 
   886  0596                     	;# 
   887  0E91                     	;# 
   888  0E92                     	;# 
   889  0E93                     	;# 
   890  0E94                     	;# 
   891  0E95                     	;# 
   892  0E96                     	;# 
   893  0E97                     	;# 
   894  0E98                     	;# 
   895  0E99                     	;# 
   896  0E9A                     	;# 
   897  0E9B                     	;# 
   898  0E9C                     	;# 
   899  0E9D                     	;# 
   900  0E9E                     	;# 
   901  0E9F                     	;# 
   902  0EA0                     	;# 
   903  0EA1                     	;# 
   904  0EA1                     	;# 
   905  0EA2                     	;# 
   906  0EA3                     	;# 
   907  0EA3                     	;# 
   908  0EA4                     	;# 
   909  0EA5                     	;# 
   910  0EA5                     	;# 
   911  0EA6                     	;# 
   912  0EA7                     	;# 
   913  0EA7                     	;# 
   914  0EA8                     	;# 
   915  0EA9                     	;# 
   916  0EAA                     	;# 
   917  0EAB                     	;# 
   918  0EAC                     	;# 
   919  0EAD                     	;# 
   920  0EAE                     	;# 
   921  0EAF                     	;# 
   922  0EB1                     	;# 
   923  0EB2                     	;# 
   924  0EB3                     	;# 
   925  0EB4                     	;# 
   926  0EB5                     	;# 
   927  0EB6                     	;# 
   928  0EB7                     	;# 
   929  0EB8                     	;# 
   930  0EB9                     	;# 
   931  0EBA                     	;# 
   932  0EBB                     	;# 
   933  0EBC                     	;# 
   934  0EBD                     	;# 
   935  0EBE                     	;# 
   936  0EBF                     	;# 
   937  0EC0                     	;# 
   938  0EC1                     	;# 
   939  0EC1                     	;# 
   940  0EC2                     	;# 
   941  0EC3                     	;# 
   942  0EC3                     	;# 
   943  0EC4                     	;# 
   944  0EC5                     	;# 
   945  0EC5                     	;# 
   946  0EC6                     	;# 
   947  0EC7                     	;# 
   948  0EC7                     	;# 
   949  0EC8                     	;# 
   950  0EC9                     	;# 
   951  0ECA                     	;# 
   952  0ECB                     	;# 
   953  0ECC                     	;# 
   954  0ECD                     	;# 
   955  0ECE                     	;# 
   956  0ECF                     	;# 
   957  0ED1                     	;# 
   958  0ED2                     	;# 
   959  0ED3                     	;# 
   960  0ED4                     	;# 
   961  0ED5                     	;# 
   962  0ED6                     	;# 
   963  0ED7                     	;# 
   964  0ED8                     	;# 
   965  0ED9                     	;# 
   966  0EDA                     	;# 
   967  0EDB                     	;# 
   968  0EDC                     	;# 
   969  0EDD                     	;# 
   970  0EDE                     	;# 
   971  0EDF                     	;# 
   972  0EE0                     	;# 
   973  0EE1                     	;# 
   974  0EE1                     	;# 
   975  0EE2                     	;# 
   976  0EE3                     	;# 
   977  0EE3                     	;# 
   978  0EE4                     	;# 
   979  0EE5                     	;# 
   980  0EE5                     	;# 
   981  0EE6                     	;# 
   982  0EE7                     	;# 
   983  0EE7                     	;# 
   984  0EE8                     	;# 
   985  0EE9                     	;# 
   986  0EEA                     	;# 
   987  0EEB                     	;# 
   988  0EEC                     	;# 
   989  0EED                     	;# 
   990  0EEE                     	;# 
   991  0EEF                     	;# 
   992  0F11                     	;# 
   993  0F12                     	;# 
   994  0F13                     	;# 
   995  0F14                     	;# 
   996  0F15                     	;# 
   997  0F16                     	;# 
   998  0F17                     	;# 
   999  0F18                     	;# 
  1000  0F19                     	;# 
  1001  0F1A                     	;# 
  1002  0F1B                     	;# 
  1003  0F1C                     	;# 
  1004  0F1D                     	;# 
  1005  0F1E                     	;# 
  1006  0F1F                     	;# 
  1007  0F20                     	;# 
  1008  0F21                     	;# 
  1009  0F21                     	;# 
  1010  0F22                     	;# 
  1011  0F23                     	;# 
  1012  0F23                     	;# 
  1013  0F24                     	;# 
  1014  0F25                     	;# 
  1015  0F25                     	;# 
  1016  0F26                     	;# 
  1017  0F27                     	;# 
  1018  0F27                     	;# 
  1019  0F28                     	;# 
  1020  0F29                     	;# 
  1021  0F2A                     	;# 
  1022  0F2B                     	;# 
  1023  0F2C                     	;# 
  1024  0F2D                     	;# 
  1025  0F2E                     	;# 
  1026  0F2F                     	;# 
  1027  0FE4                     	;# 
  1028  0FE5                     	;# 
  1029  0FE6                     	;# 
  1030  0FE7                     	;# 
  1031  0FE8                     	;# 
  1032  0FE9                     	;# 
  1033  0FEA                     	;# 
  1034  0FEB                     	;# 
  1035  0FED                     	;# 
  1036  0FEE                     	;# 
  1037  0FEF                     	;# 
  1038  0000                     	;# 
  1039  0001                     	;# 
  1040  0002                     	;# 
  1041  0003                     	;# 
  1042  0004                     	;# 
  1043  0005                     	;# 
  1044  0006                     	;# 
  1045  0007                     	;# 
  1046  0008                     	;# 
  1047  0009                     	;# 
  1048  000A                     	;# 
  1049  000B                     	;# 
  1050  000C                     	;# 
  1051  000D                     	;# 
  1052  000E                     	;# 
  1053  0010                     	;# 
  1054  0011                     	;# 
  1055  0012                     	;# 
  1056  0013                     	;# 
  1057  0014                     	;# 
  1058  0015                     	;# 
  1059  0016                     	;# 
  1060  0016                     	;# 
  1061  0017                     	;# 
  1062  0018                     	;# 
  1063  0019                     	;# 
  1064  001A                     	;# 
  1065  001B                     	;# 
  1066  001C                     	;# 
  1067  008C                     	;# 
  1068  008D                     	;# 
  1069  008E                     	;# 
  1070  0090                     	;# 
  1071  0091                     	;# 
  1072  0092                     	;# 
  1073  0093                     	;# 
  1074  0094                     	;# 
  1075  0095                     	;# 
  1076  0096                     	;# 
  1077  0097                     	;# 
  1078  0098                     	;# 
  1079  0099                     	;# 
  1080  009A                     	;# 
  1081  009B                     	;# 
  1082  009B                     	;# 
  1083  009C                     	;# 
  1084  009D                     	;# 
  1085  009E                     	;# 
  1086  009F                     	;# 
  1087  010C                     	;# 
  1088  010D                     	;# 
  1089  010E                     	;# 
  1090  0111                     	;# 
  1091  0112                     	;# 
  1092  0113                     	;# 
  1093  0114                     	;# 
  1094  0115                     	;# 
  1095  0116                     	;# 
  1096  0117                     	;# 
  1097  0118                     	;# 
  1098  0119                     	;# 
  1099  011A                     	;# 
  1100  011B                     	;# 
  1101  011C                     	;# 
  1102  011D                     	;# 
  1103  011D                     	;# 
  1104  011D                     	;# 
  1105  011E                     	;# 
  1106  011F                     	;# 
  1107  018C                     	;# 
  1108  018D                     	;# 
  1109  018E                     	;# 
  1110  0191                     	;# 
  1111  0191                     	;# 
  1112  0192                     	;# 
  1113  0193                     	;# 
  1114  0193                     	;# 
  1115  0193                     	;# 
  1116  0194                     	;# 
  1117  0195                     	;# 
  1118  0196                     	;# 
  1119  0197                     	;# 
  1120  0199                     	;# 
  1121  0199                     	;# 
  1122  0199                     	;# 
  1123  019A                     	;# 
  1124  019A                     	;# 
  1125  019A                     	;# 
  1126  019B                     	;# 
  1127  019B                     	;# 
  1128  019B                     	;# 
  1129  019B                     	;# 
  1130  019B                     	;# 
  1131  019C                     	;# 
  1132  019C                     	;# 
  1133  019C                     	;# 
  1134  019D                     	;# 
  1135  019D                     	;# 
  1136  019D                     	;# 
  1137  019E                     	;# 
  1138  019E                     	;# 
  1139  019E                     	;# 
  1140  019F                     	;# 
  1141  019F                     	;# 
  1142  019F                     	;# 
  1143  019F                     	;# 
  1144  019F                     	;# 
  1145  020C                     	;# 
  1146  020D                     	;# 
  1147  020E                     	;# 
  1148  0210                     	;# 
  1149  0211                     	;# 
  1150  0211                     	;# 
  1151  0212                     	;# 
  1152  0212                     	;# 
  1153  0213                     	;# 
  1154  0213                     	;# 
  1155  0214                     	;# 
  1156  0214                     	;# 
  1157  0215                     	;# 
  1158  0215                     	;# 
  1159  0215                     	;# 
  1160  0215                     	;# 
  1161  0216                     	;# 
  1162  0216                     	;# 
  1163  0217                     	;# 
  1164  0217                     	;# 
  1165  028C                     	;# 
  1166  028D                     	;# 
  1167  028E                     	;# 
  1168  0291                     	;# 
  1169  0291                     	;# 
  1170  0292                     	;# 
  1171  0293                     	;# 
  1172  0298                     	;# 
  1173  0298                     	;# 
  1174  0299                     	;# 
  1175  029A                     	;# 
  1176  030C                     	;# 
  1177  030D                     	;# 
  1178  030E                     	;# 
  1179  0311                     	;# 
  1180  0311                     	;# 
  1181  0312                     	;# 
  1182  0313                     	;# 
  1183  038C                     	;# 
  1184  038D                     	;# 
  1185  038E                     	;# 
  1186  0390                     	;# 
  1187  0391                     	;# 
  1188  0392                     	;# 
  1189  0393                     	;# 
  1190  0394                     	;# 
  1191  0395                     	;# 
  1192  0396                     	;# 
  1193  0397                     	;# 
  1194  0398                     	;# 
  1195  0399                     	;# 
  1196  039D                     	;# 
  1197  039E                     	;# 
  1198  039F                     	;# 
  1199  0511                     	;# 
  1200  0513                     	;# 
  1201  051A                     	;# 
  1202  0591                     	;# 
  1203  0592                     	;# 
  1204  0592                     	;# 
  1205  0593                     	;# 
  1206  0594                     	;# 
  1207  0594                     	;# 
  1208  0595                     	;# 
  1209  0596                     	;# 
  1210  0596                     	;# 
  1211  0E91                     	;# 
  1212  0E92                     	;# 
  1213  0E93                     	;# 
  1214  0E94                     	;# 
  1215  0E95                     	;# 
  1216  0E96                     	;# 
  1217  0E97                     	;# 
  1218  0E98                     	;# 
  1219  0E99                     	;# 
  1220  0E9A                     	;# 
  1221  0E9B                     	;# 
  1222  0E9C                     	;# 
  1223  0E9D                     	;# 
  1224  0E9E                     	;# 
  1225  0E9F                     	;# 
  1226  0EA0                     	;# 
  1227  0EA1                     	;# 
  1228  0EA1                     	;# 
  1229  0EA2                     	;# 
  1230  0EA3                     	;# 
  1231  0EA3                     	;# 
  1232  0EA4                     	;# 
  1233  0EA5                     	;# 
  1234  0EA5                     	;# 
  1235  0EA6                     	;# 
  1236  0EA7                     	;# 
  1237  0EA7                     	;# 
  1238  0EA8                     	;# 
  1239  0EA9                     	;# 
  1240  0EAA                     	;# 
  1241  0EAB                     	;# 
  1242  0EAC                     	;# 
  1243  0EAD                     	;# 
  1244  0EAE                     	;# 
  1245  0EAF                     	;# 
  1246  0EB1                     	;# 
  1247  0EB2                     	;# 
  1248  0EB3                     	;# 
  1249  0EB4                     	;# 
  1250  0EB5                     	;# 
  1251  0EB6                     	;# 
  1252  0EB7                     	;# 
  1253  0EB8                     	;# 
  1254  0EB9                     	;# 
  1255  0EBA                     	;# 
  1256  0EBB                     	;# 
  1257  0EBC                     	;# 
  1258  0EBD                     	;# 
  1259  0EBE                     	;# 
  1260  0EBF                     	;# 
  1261  0EC0                     	;# 
  1262  0EC1                     	;# 
  1263  0EC1                     	;# 
  1264  0EC2                     	;# 
  1265  0EC3                     	;# 
  1266  0EC3                     	;# 
  1267  0EC4                     	;# 
  1268  0EC5                     	;# 
  1269  0EC5                     	;# 
  1270  0EC6                     	;# 
  1271  0EC7                     	;# 
  1272  0EC7                     	;# 
  1273  0EC8                     	;# 
  1274  0EC9                     	;# 
  1275  0ECA                     	;# 
  1276  0ECB                     	;# 
  1277  0ECC                     	;# 
  1278  0ECD                     	;# 
  1279  0ECE                     	;# 
  1280  0ECF                     	;# 
  1281  0ED1                     	;# 
  1282  0ED2                     	;# 
  1283  0ED3                     	;# 
  1284  0ED4                     	;# 
  1285  0ED5                     	;# 
  1286  0ED6                     	;# 
  1287  0ED7                     	;# 
  1288  0ED8                     	;# 
  1289  0ED9                     	;# 
  1290  0EDA                     	;# 
  1291  0EDB                     	;# 
  1292  0EDC                     	;# 
  1293  0EDD                     	;# 
  1294  0EDE                     	;# 
  1295  0EDF                     	;# 
  1296  0EE0                     	;# 
  1297  0EE1                     	;# 
  1298  0EE1                     	;# 
  1299  0EE2                     	;# 
  1300  0EE3                     	;# 
  1301  0EE3                     	;# 
  1302  0EE4                     	;# 
  1303  0EE5                     	;# 
  1304  0EE5                     	;# 
  1305  0EE6                     	;# 
  1306  0EE7                     	;# 
  1307  0EE7                     	;# 
  1308  0EE8                     	;# 
  1309  0EE9                     	;# 
  1310  0EEA                     	;# 
  1311  0EEB                     	;# 
  1312  0EEC                     	;# 
  1313  0EED                     	;# 
  1314  0EEE                     	;# 
  1315  0EEF                     	;# 
  1316  0F11                     	;# 
  1317  0F12                     	;# 
  1318  0F13                     	;# 
  1319  0F14                     	;# 
  1320  0F15                     	;# 
  1321  0F16                     	;# 
  1322  0F17                     	;# 
  1323  0F18                     	;# 
  1324  0F19                     	;# 
  1325  0F1A                     	;# 
  1326  0F1B                     	;# 
  1327  0F1C                     	;# 
  1328  0F1D                     	;# 
  1329  0F1E                     	;# 
  1330  0F1F                     	;# 
  1331  0F20                     	;# 
  1332  0F21                     	;# 
  1333  0F21                     	;# 
  1334  0F22                     	;# 
  1335  0F23                     	;# 
  1336  0F23                     	;# 
  1337  0F24                     	;# 
  1338  0F25                     	;# 
  1339  0F25                     	;# 
  1340  0F26                     	;# 
  1341  0F27                     	;# 
  1342  0F27                     	;# 
  1343  0F28                     	;# 
  1344  0F29                     	;# 
  1345  0F2A                     	;# 
  1346  0F2B                     	;# 
  1347  0F2C                     	;# 
  1348  0F2D                     	;# 
  1349  0F2E                     	;# 
  1350  0F2F                     	;# 
  1351  0FE4                     	;# 
  1352  0FE5                     	;# 
  1353  0FE6                     	;# 
  1354  0FE7                     	;# 
  1355  0FE8                     	;# 
  1356  0FE9                     	;# 
  1357  0FEA                     	;# 
  1358  0FEB                     	;# 
  1359  0FED                     	;# 
  1360  0FEE                     	;# 
  1361  0FEF                     	;# 
  1362  0000                     	;# 
  1363  0001                     	;# 
  1364  0002                     	;# 
  1365  0003                     	;# 
  1366  0004                     	;# 
  1367  0005                     	;# 
  1368  0006                     	;# 
  1369  0007                     	;# 
  1370  0008                     	;# 
  1371  0009                     	;# 
  1372  000A                     	;# 
  1373  000B                     	;# 
  1374  000C                     	;# 
  1375  000D                     	;# 
  1376  000E                     	;# 
  1377  0010                     	;# 
  1378  0011                     	;# 
  1379  0012                     	;# 
  1380  0013                     	;# 
  1381  0014                     	;# 
  1382  0015                     	;# 
  1383  0016                     	;# 
  1384  0016                     	;# 
  1385  0017                     	;# 
  1386  0018                     	;# 
  1387  0019                     	;# 
  1388  001A                     	;# 
  1389  001B                     	;# 
  1390  001C                     	;# 
  1391  008C                     	;# 
  1392  008D                     	;# 
  1393  008E                     	;# 
  1394  0090                     	;# 
  1395  0091                     	;# 
  1396  0092                     	;# 
  1397  0093                     	;# 
  1398  0094                     	;# 
  1399  0095                     	;# 
  1400  0096                     	;# 
  1401  0097                     	;# 
  1402  0098                     	;# 
  1403  0099                     	;# 
  1404  009A                     	;# 
  1405  009B                     	;# 
  1406  009B                     	;# 
  1407  009C                     	;# 
  1408  009D                     	;# 
  1409  009E                     	;# 
  1410  009F                     	;# 
  1411  010C                     	;# 
  1412  010D                     	;# 
  1413  010E                     	;# 
  1414  0111                     	;# 
  1415  0112                     	;# 
  1416  0113                     	;# 
  1417  0114                     	;# 
  1418  0115                     	;# 
  1419  0116                     	;# 
  1420  0117                     	;# 
  1421  0118                     	;# 
  1422  0119                     	;# 
  1423  011A                     	;# 
  1424  011B                     	;# 
  1425  011C                     	;# 
  1426  011D                     	;# 
  1427  011D                     	;# 
  1428  011D                     	;# 
  1429  011E                     	;# 
  1430  011F                     	;# 
  1431  018C                     	;# 
  1432  018D                     	;# 
  1433  018E                     	;# 
  1434  0191                     	;# 
  1435  0191                     	;# 
  1436  0192                     	;# 
  1437  0193                     	;# 
  1438  0193                     	;# 
  1439  0193                     	;# 
  1440  0194                     	;# 
  1441  0195                     	;# 
  1442  0196                     	;# 
  1443  0197                     	;# 
  1444  0199                     	;# 
  1445  0199                     	;# 
  1446  0199                     	;# 
  1447  019A                     	;# 
  1448  019A                     	;# 
  1449  019A                     	;# 
  1450  019B                     	;# 
  1451  019B                     	;# 
  1452  019B                     	;# 
  1453  019B                     	;# 
  1454  019B                     	;# 
  1455  019C                     	;# 
  1456  019C                     	;# 
  1457  019C                     	;# 
  1458  019D                     	;# 
  1459  019D                     	;# 
  1460  019D                     	;# 
  1461  019E                     	;# 
  1462  019E                     	;# 
  1463  019E                     	;# 
  1464  019F                     	;# 
  1465  019F                     	;# 
  1466  019F                     	;# 
  1467  019F                     	;# 
  1468  019F                     	;# 
  1469  020C                     	;# 
  1470  020D                     	;# 
  1471  020E                     	;# 
  1472  0210                     	;# 
  1473  0211                     	;# 
  1474  0211                     	;# 
  1475  0212                     	;# 
  1476  0212                     	;# 
  1477  0213                     	;# 
  1478  0213                     	;# 
  1479  0214                     	;# 
  1480  0214                     	;# 
  1481  0215                     	;# 
  1482  0215                     	;# 
  1483  0215                     	;# 
  1484  0215                     	;# 
  1485  0216                     	;# 
  1486  0216                     	;# 
  1487  0217                     	;# 
  1488  0217                     	;# 
  1489  028C                     	;# 
  1490  028D                     	;# 
  1491  028E                     	;# 
  1492  0291                     	;# 
  1493  0291                     	;# 
  1494  0292                     	;# 
  1495  0293                     	;# 
  1496  0298                     	;# 
  1497  0298                     	;# 
  1498  0299                     	;# 
  1499  029A                     	;# 
  1500  030C                     	;# 
  1501  030D                     	;# 
  1502  030E                     	;# 
  1503  0311                     	;# 
  1504  0311                     	;# 
  1505  0312                     	;# 
  1506  0313                     	;# 
  1507  038C                     	;# 
  1508  038D                     	;# 
  1509  038E                     	;# 
  1510  0390                     	;# 
  1511  0391                     	;# 
  1512  0392                     	;# 
  1513  0393                     	;# 
  1514  0394                     	;# 
  1515  0395                     	;# 
  1516  0396                     	;# 
  1517  0397                     	;# 
  1518  0398                     	;# 
  1519  0399                     	;# 
  1520  039D                     	;# 
  1521  039E                     	;# 
  1522  039F                     	;# 
  1523  0511                     	;# 
  1524  0513                     	;# 
  1525  051A                     	;# 
  1526  0591                     	;# 
  1527  0592                     	;# 
  1528  0592                     	;# 
  1529  0593                     	;# 
  1530  0594                     	;# 
  1531  0594                     	;# 
  1532  0595                     	;# 
  1533  0596                     	;# 
  1534  0596                     	;# 
  1535  0E91                     	;# 
  1536  0E92                     	;# 
  1537  0E93                     	;# 
  1538  0E94                     	;# 
  1539  0E95                     	;# 
  1540  0E96                     	;# 
  1541  0E97                     	;# 
  1542  0E98                     	;# 
  1543  0E99                     	;# 
  1544  0E9A                     	;# 
  1545  0E9B                     	;# 
  1546  0E9C                     	;# 
  1547  0E9D                     	;# 
  1548  0E9E                     	;# 
  1549  0E9F                     	;# 
  1550  0EA0                     	;# 
  1551  0EA1                     	;# 
  1552  0EA1                     	;# 
  1553  0EA2                     	;# 
  1554  0EA3                     	;# 
  1555  0EA3                     	;# 
  1556  0EA4                     	;# 
  1557  0EA5                     	;# 
  1558  0EA5                     	;# 
  1559  0EA6                     	;# 
  1560  0EA7                     	;# 
  1561  0EA7                     	;# 
  1562  0EA8                     	;# 
  1563  0EA9                     	;# 
  1564  0EAA                     	;# 
  1565  0EAB                     	;# 
  1566  0EAC                     	;# 
  1567  0EAD                     	;# 
  1568  0EAE                     	;# 
  1569  0EAF                     	;# 
  1570  0EB1                     	;# 
  1571  0EB2                     	;# 
  1572  0EB3                     	;# 
  1573  0EB4                     	;# 
  1574  0EB5                     	;# 
  1575  0EB6                     	;# 
  1576  0EB7                     	;# 
  1577  0EB8                     	;# 
  1578  0EB9                     	;# 
  1579  0EBA                     	;# 
  1580  0EBB                     	;# 
  1581  0EBC                     	;# 
  1582  0EBD                     	;# 
  1583  0EBE                     	;# 
  1584  0EBF                     	;# 
  1585  0EC0                     	;# 
  1586  0EC1                     	;# 
  1587  0EC1                     	;# 
  1588  0EC2                     	;# 
  1589  0EC3                     	;# 
  1590  0EC3                     	;# 
  1591  0EC4                     	;# 
  1592  0EC5                     	;# 
  1593  0EC5                     	;# 
  1594  0EC6                     	;# 
  1595  0EC7                     	;# 
  1596  0EC7                     	;# 
  1597  0EC8                     	;# 
  1598  0EC9                     	;# 
  1599  0ECA                     	;# 
  1600  0ECB                     	;# 
  1601  0ECC                     	;# 
  1602  0ECD                     	;# 
  1603  0ECE                     	;# 
  1604  0ECF                     	;# 
  1605  0ED1                     	;# 
  1606  0ED2                     	;# 
  1607  0ED3                     	;# 
  1608  0ED4                     	;# 
  1609  0ED5                     	;# 
  1610  0ED6                     	;# 
  1611  0ED7                     	;# 
  1612  0ED8                     	;# 
  1613  0ED9                     	;# 
  1614  0EDA                     	;# 
  1615  0EDB                     	;# 
  1616  0EDC                     	;# 
  1617  0EDD                     	;# 
  1618  0EDE                     	;# 
  1619  0EDF                     	;# 
  1620  0EE0                     	;# 
  1621  0EE1                     	;# 
  1622  0EE1                     	;# 
  1623  0EE2                     	;# 
  1624  0EE3                     	;# 
  1625  0EE3                     	;# 
  1626  0EE4                     	;# 
  1627  0EE5                     	;# 
  1628  0EE5                     	;# 
  1629  0EE6                     	;# 
  1630  0EE7                     	;# 
  1631  0EE7                     	;# 
  1632  0EE8                     	;# 
  1633  0EE9                     	;# 
  1634  0EEA                     	;# 
  1635  0EEB                     	;# 
  1636  0EEC                     	;# 
  1637  0EED                     	;# 
  1638  0EEE                     	;# 
  1639  0EEF                     	;# 
  1640  0F11                     	;# 
  1641  0F12                     	;# 
  1642  0F13                     	;# 
  1643  0F14                     	;# 
  1644  0F15                     	;# 
  1645  0F16                     	;# 
  1646  0F17                     	;# 
  1647  0F18                     	;# 
  1648  0F19                     	;# 
  1649  0F1A                     	;# 
  1650  0F1B                     	;# 
  1651  0F1C                     	;# 
  1652  0F1D                     	;# 
  1653  0F1E                     	;# 
  1654  0F1F                     	;# 
  1655  0F20                     	;# 
  1656  0F21                     	;# 
  1657  0F21                     	;# 
  1658  0F22                     	;# 
  1659  0F23                     	;# 
  1660  0F23                     	;# 
  1661  0F24                     	;# 
  1662  0F25                     	;# 
  1663  0F25                     	;# 
  1664  0F26                     	;# 
  1665  0F27                     	;# 
  1666  0F27                     	;# 
  1667  0F28                     	;# 
  1668  0F29                     	;# 
  1669  0F2A                     	;# 
  1670  0F2B                     	;# 
  1671  0F2C                     	;# 
  1672  0F2D                     	;# 
  1673  0F2E                     	;# 
  1674  0F2F                     	;# 
  1675  0FE4                     	;# 
  1676  0FE5                     	;# 
  1677  0FE6                     	;# 
  1678  0FE7                     	;# 
  1679  0FE8                     	;# 
  1680  0FE9                     	;# 
  1681  0FEA                     	;# 
  1682  0FEB                     	;# 
  1683  0FED                     	;# 
  1684  0FEE                     	;# 
  1685  0FEF                     	;# 
  1686                           
  1687                           	psect	idataBANK0
  1688  0207                     __pidataBANK0:	
  1689                           
  1690                           ;initializer for _OrdenConversionADC
  1691  0207  3404               	retlw	4
  1692  0208  3403               	retlw	3
  1693  0209  3402               	retlw	2
  1694  020A  3401               	retlw	1
  1695  020B  340C               	retlw	12
  1696  020C  340A               	retlw	10
  1697  020D  3408               	retlw	8
  1698  020E  3409               	retlw	9
  1699  020F  340B               	retlw	11
  1700                           
  1701                           	psect	nvBANK0
  1702  0054                     __pnvBANK0:	
  1703  0054                     _eusartTxBufferRemaining:	
  1704  0054                     	ds	1
  1705  0018                     _T1CONbits	set	24
  1706  0018                     _T1CON	set	24
  1707  000B                     _INTCON	set	11
  1708  000E                     _PORTC	set	14
  1709  000D                     _PORTB	set	13
  1710  000C                     _PORTA	set	12
  1711  0016                     _TMR1L	set	22
  1712  0017                     _TMR1H	set	23
  1713  0011                     _PIR1bits	set	17
  1714  000B                     _INTCONbits	set	11
  1715  0088                     _TMR1IF	set	136
  1716  009B                     _ADRESL	set	155
  1717  009C                     _ADRESH	set	156
  1718  009D                     _ADCON0bits	set	157
  1719  009F                     _ADCON2bits	set	159
  1720  009E                     _ADCON1bits	set	158
  1721  0096                     _PCON	set	150
  1722  008C                     _TRISAbits	set	140
  1723  008D                     _TRISBbits	set	141
  1724  0095                     _OPTION_REGbits	set	149
  1725  008E                     _TRISC	set	142
  1726  008D                     _TRISB	set	141
  1727  008C                     _TRISA	set	140
  1728  0090                     _TRISE	set	144
  1729  0097                     _WDTCON	set	151
  1730  0098                     _OSCTUNE	set	152
  1731  009A                     _OSCSTAT	set	154
  1732  0099                     _OSCCON	set	153
  1733  0091                     _PIE1bits	set	145
  1734  04E8                     _ADON	set	1256
  1735  0488                     _TMR1IE	set	1160
  1736  0477                     _TRISC7	set	1143
  1737  0476                     _TRISC6	set	1142
  1738  0117                     _FVRCONbits	set	279
  1739  011C                     _APFCON2	set	284
  1740  011D                     _APFCON1	set	285
  1741  010E                     _LATC	set	270
  1742  010D                     _LATB	set	269
  1743  010C                     _LATA	set	268
  1744  0116                     _BORCON	set	278
  1745  0197                     _VREGCONbits	set	407
  1746  018C                     _ANSELAbits	set	396
  1747  018E                     _ANSELCbits	set	398
  1748  018D                     _ANSELBbits	set	397
  1749  018C                     _ANSELA	set	396
  1750  018D                     _ANSELB	set	397
  1751  018E                     _ANSELC	set	398
  1752  019A                     _TX1REG	set	410
  1753  0199                     _RC1REG	set	409
  1754  019D                     _RC1STAbits	set	413
  1755  019C                     _SP1BRGH	set	412
  1756  019B                     _SP1BRGL	set	411
  1757  019E                     _TX1STA	set	414
  1758  019D                     _RC1STA	set	413
  1759  019F                     _BAUD1CON	set	415
  1760  020E                     _WPUC	set	526
  1761  020C                     _WPUA	set	524
  1762  020D                     _WPUB	set	525
  1763  0210                     _WPUE	set	528
  1764                           
  1765                           	psect	stringtext1
  1766  01FC                     __pstringtext1:	
  1767  01FC                     STR_1:	
  1768  01FC  344C               	retlw	76	;'L'
  1769  01FD  3445               	retlw	69	;'E'
  1770  01FE  3443               	retlw	67	;'C'
  1771  01FF  3454               	retlw	84	;'T'
  1772  0200  3455               	retlw	85	;'U'
  1773  0201  3452               	retlw	82	;'R'
  1774  0202  3441               	retlw	65	;'A'
  1775  0203  3453               	retlw	83	;'S'
  1776  0204  343A               	retlw	58	;':'
  1777  0205  3420               	retlw	32	;' '
  1778  0206  3400               	retlw	0
  1779                           
  1780                           	psect	stringtext2
  1781  0000                     __pstringtext2:	
  1782                           
  1783                           ; #config settings
  1784  0000                     
  1785                           	psect	cinit
  1786  0032                     start_initialization:	
  1787  0032                     __initialization:	
  1788                           
  1789                           ; Initialize objects allocated to BANK0
  1790  0032  3007               	movlw	low __pidataBANK0
  1791  0033  0084               	movwf	4
  1792  0034  3082               	movlw	(high __pidataBANK0)| (0+128)
  1793  0035  0085               	movwf	5
  1794  0036  304B               	movlw	low __pdataBANK0
  1795  0037  0086               	movwf	6
  1796  0038  3000               	movlw	high __pdataBANK0
  1797  0039  0087               	movwf	7
  1798  003A  3009               	movlw	9
  1799  003B  3182  2218  3180   	fcall	init_ram
  1800                           
  1801                           ; Clear objects allocated to COMMON
  1802  003E  01FA               	clrf	__pbssCOMMON& (0+127)
  1803  003F  01FB               	clrf	(__pbssCOMMON+1)& (0+127)
  1804                           
  1805                           ; Clear objects allocated to BANK0
  1806  0040  3020               	movlw	low __pbssBANK0
  1807  0041  0084               	movwf	4
  1808  0042  3000               	movlw	high __pbssBANK0
  1809  0043  0085               	movwf	5
  1810  0044  3018               	movlw	24
  1811  0045  3182  221E  3180   	fcall	clear_ram0
  1812                           
  1813                           ; Clear objects allocated to BANK1
  1814  0048  30A0               	movlw	low __pbssBANK1
  1815  0049  0084               	movwf	4
  1816  004A  3000               	movlw	high __pbssBANK1
  1817  004B  0085               	movwf	5
  1818  004C  3040               	movlw	64
  1819  004D  3182  221E         	fcall	clear_ram0
  1820  004F                     end_of_initialization:	
  1821                           ;End of C runtime variable initialization code
  1822                           
  1823  004F                     __end_of__initialization:	
  1824  004F  107E               	bcf	int$flags,0	;clear compiler interrupt flag (level 1)
  1825  0050  0020               	movlb	0
  1826  0051  3181  29E4         	ljmp	_main	;jump to C main() function
  1827                           
  1828                           	psect	bssCOMMON
  1829  007A                     __pbssCOMMON:	
  1830  007A                     _eusartTxTail:	
  1831  007A                     	ds	1
  1832  007B                     _eusartTxHead:	
  1833  007B                     	ds	1
  1834                           
  1835                           	psect	bssBANK0
  1836  0020                     __pbssBANK0:	
  1837  0020                     _DatosADC:	
  1838  0020                     	ds	20
  1839  0034                     _EnviarDatos:	
  1840  0034                     	ds	2
  1841  0036                     _RealizarMedicion:	
  1842  0036                     	ds	2
  1843                           
  1844                           	psect	dataBANK0
  1845  004B                     __pdataBANK0:	
  1846  004B                     _OrdenConversionADC:	
  1847  004B                     	ds	9
  1848                           
  1849                           	psect	bssBANK1
  1850  00A0                     __pbssBANK1:	
  1851  00A0                     _eusartTxBuffer:	
  1852  00A0                     	ds	64
  1853                           
  1854                           	psect	inittext
  1855  0218                     init_ram:	
  1856  0218  00FE               	movwf	126
  1857  0219                     initloop:	
  1858  0219  0012               	moviw fsr0++
  1859  021A  001E               	movwi fsr1++
  1860  021B  0BFE               	decfsz	126,f
  1861  021C  2A19               	goto	initloop
  1862  021D  3400               	retlw	0
  1863                           
  1864                           	psect	clrtext
  1865  021E                     clear_ram0:	
  1866                           ;	Called with FSR0 containing the base address, and
  1867                           ;	WREG with the size to clear
  1868                           
  1869  021E  0064               	clrwdt	;clear the watchdog before getting into this loop
  1870  021F                     clrloop0:	
  1871  021F  0180               	clrf	0	;clear RAM location pointed to by FSR
  1872  0220  3101               	addfsr 0,1
  1873  0221  0B89               	decfsz	9,f	;Have we reached the end of clearing yet?
  1874  0222  2A1F               	goto	clrloop0	;have we reached the end yet?
  1875  0223  3400               	retlw	0	;all done for this memory range, return
  1876                           
  1877                           	psect	cstackCOMMON
  1878  0070                     __pcstackCOMMON:	
  1879  0070                     ?_EUSART_Transmit_ISR:	
  1880  0070                     ??_EUSART_Transmit_ISR:	
  1881                           ; 1 bytes @ 0x0
  1882                           
  1883  0070                     ?_PIN_MANAGER_Initialize:	
  1884                           ; 1 bytes @ 0x0
  1885                           
  1886  0070                     ?_OSCILLATOR_Initialize:	
  1887                           ; 1 bytes @ 0x0
  1888                           
  1889  0070                     ?_WDT_Initialize:	
  1890                           ; 1 bytes @ 0x0
  1891                           
  1892  0070                     ?_EUSART_Initialize:	
  1893                           ; 1 bytes @ 0x0
  1894                           
  1895  0070                     ?_MedirADCs:	
  1896                           ; 1 bytes @ 0x0
  1897                           
  1898  0070                     ?_EnviarDatos2ESP:	
  1899                           ; 1 bytes @ 0x0
  1900                           
  1901  0070                     ?_INTERRUPT_InterruptManager:	
  1902                           ; 1 bytes @ 0x0
  1903                           
  1904  0070                     ?_SYSTEM_Initialize:	
  1905                           ; 1 bytes @ 0x0
  1906                           
  1907  0070                     ?_EUSART_Write:	
  1908                           ; 1 bytes @ 0x0
  1909                           
  1910  0070                     ?_putch:	
  1911                           ; 1 bytes @ 0x0
  1912                           
  1913  0070                     ?_main:	
  1914                           ; 1 bytes @ 0x0
  1915                           
  1916                           
  1917                           ; 1 bytes @ 0x0
  1918  0070                     	ds	1
  1919  0071                     ??_INTERRUPT_InterruptManager:	
  1920                           
  1921                           ; 1 bytes @ 0x1
  1922  0071                     	ds	1
  1923  0072                     ??_PIN_MANAGER_Initialize:	
  1924  0072                     ??_OSCILLATOR_Initialize:	
  1925                           ; 1 bytes @ 0x2
  1926                           
  1927  0072                     ??_WDT_Initialize:	
  1928                           ; 1 bytes @ 0x2
  1929                           
  1930  0072                     ??_EUSART_Initialize:	
  1931                           ; 1 bytes @ 0x2
  1932                           
  1933  0072                     ??_MedirADCs:	
  1934                           ; 1 bytes @ 0x2
  1935                           
  1936  0072                     ??_EUSART_Write:	
  1937                           ; 1 bytes @ 0x2
  1938                           
  1939                           
  1940                           ; 1 bytes @ 0x2
  1941  0072                     	ds	1
  1942  0073                     ??_SYSTEM_Initialize:	
  1943  0073                     EUSART_Write@txData:	
  1944                           ; 1 bytes @ 0x3
  1945                           
  1946                           
  1947                           ; 1 bytes @ 0x3
  1948  0073                     	ds	1
  1949  0074                     ??_putch:	
  1950  0074                     putch@txData:	
  1951                           ; 1 bytes @ 0x4
  1952                           
  1953                           
  1954                           ; 1 bytes @ 0x4
  1955  0074                     	ds	1
  1956  0075                     ?_printf:	
  1957  0075                     printf@f:	
  1958                           ; 2 bytes @ 0x5
  1959                           
  1960                           
  1961                           ; 2 bytes @ 0x5
  1962  0075                     	ds	2
  1963  0077                     ??_printf:	
  1964                           
  1965                           ; 1 bytes @ 0x7
  1966  0077                     	ds	3
  1967  007A                     ??_main:	
  1968                           
  1969                           	psect	cstackBANK0
  1970  0038                     __pcstackBANK0:	
  1971                           ; 1 bytes @ 0xA
  1972                           
  1973  0038                     printf@ap:	
  1974  0038                     MedirADCs@MedicionesActuales:	
  1975                           ; 1 bytes @ 0x0
  1976                           
  1977                           
  1978                           ; 18 bytes @ 0x0
  1979  0038                     	ds	1
  1980  0039                     printf@c:	
  1981                           
  1982                           ; 1 bytes @ 0x1
  1983  0039                     	ds	1
  1984  003A                     ??_EnviarDatos2ESP:	
  1985                           
  1986                           ; 1 bytes @ 0x2
  1987  003A                     	ds	2
  1988  003C                     EnviarDatos2ESP@checksum:	
  1989                           
  1990                           ; 2 bytes @ 0x4
  1991  003C                     	ds	2
  1992  003E                     EnviarDatos2ESP@i:	
  1993                           
  1994                           ; 1 bytes @ 0x6
  1995  003E                     	ds	12
  1996  004A                     MedirADCs@i:	
  1997                           
  1998                           ; 1 bytes @ 0x12
  1999  004A                     	ds	1
  2000                           
  2001                           	psect	maintext
  2002  01E4                     __pmaintext:	
  2003 ;;
  2004 ;;Main: autosize = 0, tempsize = 0, incstack = 0, save=0
  2005 ;;
  2006 ;; *************** function _main *****************
  2007 ;; Defined at:
  2008 ;;		line 66 in file "main.c"
  2009 ;; Parameters:    Size  Location     Type
  2010 ;;		None
  2011 ;; Auto vars:     Size  Location     Type
  2012 ;;  j               1    0        unsigned char 
  2013 ;;  i               1    0        unsigned char 
  2014 ;; Return value:  Size  Location     Type
  2015 ;;                  1    wreg      void 
  2016 ;; Registers used:
  2017 ;;		wreg, fsr0l, fsr0h, fsr1l, fsr1h, status,2, status,0, pclath, cstack
  2018 ;; Tracked objects:
  2019 ;;		On entry : B1F/0
  2020 ;;		On exit  : 0/0
  2021 ;;		Unchanged: 0/0
  2022 ;; Data sizes:     COMMON   BANK0   BANK1   BANK2   BANK3   BANK4   BANK5   BANK6   BANK7   BANK8   BANK9  BANK10  BANK1
      +1  BANK12  BANK13  BANK14  BANK15  BANK16  BANK17  BANK18  BANK19  BANK20  BANK21  BANK22  BANK23  BANK24  BANK25
  2023 ;;      Params:         0       0       0       0       0       0       0       0       0       0       0       0       
      +0       0       0       0       0       0       0       0       0       0       0       0       0       0       0
  2024 ;;      Locals:         0       0       0       0       0       0       0       0       0       0       0       0       
      +0       0       0       0       0       0       0       0       0       0       0       0       0       0       0
  2025 ;;      Temps:          0       0       0       0       0       0       0       0       0       0       0       0       
      +0       0       0       0       0       0       0       0       0       0       0       0       0       0       0
  2026 ;;      Totals:         0       0       0       0       0       0       0       0       0       0       0       0       
      +0       0       0       0       0       0       0       0       0       0       0       0       0       0       0
  2027 ;;Total ram usage:        0 bytes
  2028 ;; Hardware stack levels required when called:    6
  2029 ;; This function calls:
  2030 ;;		_EnviarDatos2ESP
  2031 ;;		_MedirADCs
  2032 ;;		_SYSTEM_Initialize
  2033 ;; This function is called by:
  2034 ;;		Startup code after reset
  2035 ;; This function uses a non-reentrant model
  2036 ;;
  2037                           
  2038                           
  2039                           ;psect for function _main
  2040  01E4                     _main:	
  2041                           
  2042                           ;main.c: 68: uint8_t i;
  2043                           ;main.c: 69: char j;
  2044                           ;main.c: 71: SYSTEM_Initialize();
  2045                           
  2046                           ;incstack = 0
  2047                           ; Regs used in _main: [wreg-fsr1h+status,2+status,0+pclath+cstack]
  2048  01E4  3181  21F0  3181   	fcall	_SYSTEM_Initialize
  2049                           
  2050                           ;main.c: 72: (INTCONbits.GIE = 1);
  2051  01E7  178B               	bsf	11,7	;volatile
  2052                           
  2053                           ;main.c: 73: (INTCONbits.PEIE = 1);
  2054  01E8  170B               	bsf	11,6	;volatile
  2055  01E9                     l1297:	
  2056                           ;main.c: 75: while (1)
  2057                           
  2058                           
  2059                           ;main.c: 76: {
  2060                           ;main.c: 77: MedirADCs();
  2061  01E9  3180  20C4  3181   	fcall	_MedirADCs
  2062                           
  2063                           ;main.c: 78: EnviarDatos2ESP();
  2064  01EC  3181  2130  3181   	fcall	_EnviarDatos2ESP
  2065  01EF  29E9               	goto	l1297
  2066  01F0                     __end_of_main:	
  2067                           
  2068                           	psect	text1
  2069  01F0                     __ptext1:	
  2070 ;; *************** function _SYSTEM_Initialize *****************
  2071 ;; Defined at:
  2072 ;;		line 72 in file "mcc_generated_files/mcc.c"
  2073 ;; Parameters:    Size  Location     Type
  2074 ;;		None
  2075 ;; Auto vars:     Size  Location     Type
  2076 ;;		None
  2077 ;; Return value:  Size  Location     Type
  2078 ;;                  1    wreg      void 
  2079 ;; Registers used:
  2080 ;;		wreg, status,2, status,0, pclath, cstack
  2081 ;; Tracked objects:
  2082 ;;		On entry : 0/0
  2083 ;;		On exit  : 0/0
  2084 ;;		Unchanged: 0/0
  2085 ;; Data sizes:     COMMON   BANK0   BANK1   BANK2   BANK3   BANK4   BANK5   BANK6   BANK7   BANK8   BANK9  BANK10  BANK1
      +1  BANK12  BANK13  BANK14  BANK15  BANK16  BANK17  BANK18  BANK19  BANK20  BANK21  BANK22  BANK23  BANK24  BANK25
  2086 ;;      Params:         0       0       0       0       0       0       0       0       0       0       0       0       
      +0       0       0       0       0       0       0       0       0       0       0       0       0       0       0
  2087 ;;      Locals:         0       0       0       0       0       0       0       0       0       0       0       0       
      +0       0       0       0       0       0       0       0       0       0       0       0       0       0       0
  2088 ;;      Temps:          0       0       0       0       0       0       0       0       0       0       0       0       
      +0       0       0       0       0       0       0       0       0       0       0       0       0       0       0
  2089 ;;      Totals:         0       0       0       0       0       0       0       0       0       0       0       0       
      +0       0       0       0       0       0       0       0       0       0       0       0       0       0       0
  2090 ;;Total ram usage:        0 bytes
  2091 ;; Hardware stack levels used:    1
  2092 ;; Hardware stack levels required when called:    3
  2093 ;; This function calls:
  2094 ;;		_EUSART_Initialize
  2095 ;;		_OSCILLATOR_Initialize
  2096 ;;		_PIN_MANAGER_Initialize
  2097 ;;		_WDT_Initialize
  2098 ;; This function is called by:
  2099 ;;		_main
  2100 ;; This function uses a non-reentrant model
  2101 ;;
  2102                           
  2103                           
  2104                           ;psect for function _SYSTEM_Initialize
  2105  01F0                     _SYSTEM_Initialize:	
  2106                           
  2107                           ;mcc.c: 75: PIN_MANAGER_Initialize();
  2108                           
  2109                           ;incstack = 0
  2110                           ; Regs used in _SYSTEM_Initialize: [wreg+status,2+status,0+pclath+cstack]
  2111  01F0  3180  2053  3181   	fcall	_PIN_MANAGER_Initialize
  2112                           
  2113                           ;mcc.c: 76: OSCILLATOR_Initialize();
  2114  01F3  3182  2210  3181   	fcall	_OSCILLATOR_Initialize
  2115                           
  2116                           ;mcc.c: 77: WDT_Initialize();
  2117  01F6  3182  2229  3181   	fcall	_WDT_Initialize
  2118                           
  2119                           ;mcc.c: 78: EUSART_Initialize();
  2120  01F9  3181  21D0         	fcall	_EUSART_Initialize
  2121  01FB  0008               	return
  2122  01FC                     __end_of_SYSTEM_Initialize:	
  2123                           
  2124                           	psect	text2
  2125  0229                     __ptext2:	
  2126 ;; *************** function _WDT_Initialize *****************
  2127 ;; Defined at:
  2128 ;;		line 93 in file "mcc_generated_files/mcc.c"
  2129 ;; Parameters:    Size  Location     Type
  2130 ;;		None
  2131 ;; Auto vars:     Size  Location     Type
  2132 ;;		None
  2133 ;; Return value:  Size  Location     Type
  2134 ;;                  1    wreg      void 
  2135 ;; Registers used:
  2136 ;;		wreg
  2137 ;; Tracked objects:
  2138 ;;		On entry : 0/0
  2139 ;;		On exit  : 0/0
  2140 ;;		Unchanged: 0/0
  2141 ;; Data sizes:     COMMON   BANK0   BANK1   BANK2   BANK3   BANK4   BANK5   BANK6   BANK7   BANK8   BANK9  BANK10  BANK1
      +1  BANK12  BANK13  BANK14  BANK15  BANK16  BANK17  BANK18  BANK19  BANK20  BANK21  BANK22  BANK23  BANK24  BANK25
  2142 ;;      Params:         0       0       0       0       0       0       0       0       0       0       0       0       
      +0       0       0       0       0       0       0       0       0       0       0       0       0       0       0
  2143 ;;      Locals:         0       0       0       0       0       0       0       0       0       0       0       0       
      +0       0       0       0       0       0       0       0       0       0       0       0       0       0       0
  2144 ;;      Temps:          0       0       0       0       0       0       0       0       0       0       0       0       
      +0       0       0       0       0       0       0       0       0       0       0       0       0       0       0
  2145 ;;      Totals:         0       0       0       0       0       0       0       0       0       0       0       0       
      +0       0       0       0       0       0       0       0       0       0       0       0       0       0       0
  2146 ;;Total ram usage:        0 bytes
  2147 ;; Hardware stack levels used:    1
  2148 ;; Hardware stack levels required when called:    2
  2149 ;; This function calls:
  2150 ;;		Nothing
  2151 ;; This function is called by:
  2152 ;;		_SYSTEM_Initialize
  2153 ;; This function uses a non-reentrant model
  2154 ;;
  2155                           
  2156                           
  2157                           ;psect for function _WDT_Initialize
  2158  0229                     _WDT_Initialize:	
  2159                           
  2160                           ;mcc.c: 96: WDTCON = 0x16;
  2161                           
  2162                           ;incstack = 0
  2163                           ; Regs used in _WDT_Initialize: [wreg]
  2164  0229  3016               	movlw	22
  2165  022A  0021               	movlb	1	; select bank1
  2166  022B  0097               	movwf	23	;volatile
  2167  022C  0008               	return
  2168  022D                     __end_of_WDT_Initialize:	
  2169                           
  2170                           	psect	text3
  2171  0053                     __ptext3:	
  2172 ;; *************** function _PIN_MANAGER_Initialize *****************
  2173 ;; Defined at:
  2174 ;;		line 52 in file "mcc_generated_files/pin_manager.c"
  2175 ;; Parameters:    Size  Location     Type
  2176 ;;		None
  2177 ;; Auto vars:     Size  Location     Type
  2178 ;;		None
  2179 ;; Return value:  Size  Location     Type
  2180 ;;                  1    wreg      void 
  2181 ;; Registers used:
  2182 ;;		wreg, status,2, status,0
  2183 ;; Tracked objects:
  2184 ;;		On entry : 0/0
  2185 ;;		On exit  : 0/0
  2186 ;;		Unchanged: 0/0
  2187 ;; Data sizes:     COMMON   BANK0   BANK1   BANK2   BANK3   BANK4   BANK5   BANK6   BANK7   BANK8   BANK9  BANK10  BANK1
      +1  BANK12  BANK13  BANK14  BANK15  BANK16  BANK17  BANK18  BANK19  BANK20  BANK21  BANK22  BANK23  BANK24  BANK25
  2188 ;;      Params:         0       0       0       0       0       0       0       0       0       0       0       0       
      +0       0       0       0       0       0       0       0       0       0       0       0       0       0       0
  2189 ;;      Locals:         0       0       0       0       0       0       0       0       0       0       0       0       
      +0       0       0       0       0       0       0       0       0       0       0       0       0       0       0
  2190 ;;      Temps:          0       0       0       0       0       0       0       0       0       0       0       0       
      +0       0       0       0       0       0       0       0       0       0       0       0       0       0       0
  2191 ;;      Totals:         0       0       0       0       0       0       0       0       0       0       0       0       
      +0       0       0       0       0       0       0       0       0       0       0       0       0       0       0
  2192 ;;Total ram usage:        0 bytes
  2193 ;; Hardware stack levels used:    1
  2194 ;; Hardware stack levels required when called:    2
  2195 ;; This function calls:
  2196 ;;		Nothing
  2197 ;; This function is called by:
  2198 ;;		_SYSTEM_Initialize
  2199 ;; This function uses a non-reentrant model
  2200 ;;
  2201                           
  2202                           
  2203                           ;psect for function _PIN_MANAGER_Initialize
  2204  0053                     _PIN_MANAGER_Initialize:	
  2205                           
  2206                           ;pin_manager.c: 57: LATA = 0x00;
  2207                           
  2208                           ;incstack = 0
  2209                           ; Regs used in _PIN_MANAGER_Initialize: [wreg+status,2+status,0]
  2210  0053  0022               	movlb	2	; select bank2
  2211  0054  018C               	clrf	12	;volatile
  2212                           
  2213                           ;pin_manager.c: 58: LATB = 0x00;
  2214  0055  018D               	clrf	13	;volatile
  2215                           
  2216                           ;pin_manager.c: 59: LATC = 0x00;
  2217  0056  018E               	clrf	14	;volatile
  2218                           
  2219                           ;pin_manager.c: 64: TRISE = 0x08;
  2220  0057  3008               	movlw	8
  2221  0058  0021               	movlb	1	; select bank1
  2222  0059  0090               	movwf	16	;volatile
  2223                           
  2224                           ;pin_manager.c: 65: TRISA = 0x00;
  2225  005A  018C               	clrf	12	;volatile
  2226                           
  2227                           ;pin_manager.c: 66: TRISB = 0x00;
  2228  005B  018D               	clrf	13	;volatile
  2229                           
  2230                           ;pin_manager.c: 67: TRISC = 0x40;
  2231  005C  3040               	movlw	64
  2232  005D  008E               	movwf	14	;volatile
  2233                           
  2234                           ;pin_manager.c: 72: ANSELC = 0xBF;
  2235  005E  30BF               	movlw	191
  2236  005F  0023               	movlb	3	; select bank3
  2237  0060  008E               	movwf	14	;volatile
  2238                           
  2239                           ;pin_manager.c: 73: ANSELB = 0x7F;
  2240  0061  307F               	movlw	127
  2241  0062  008D               	movwf	13	;volatile
  2242                           
  2243                           ;pin_manager.c: 74: ANSELA = 0xBF;
  2244  0063  30BF               	movlw	191
  2245  0064  008C               	movwf	12	;volatile
  2246                           
  2247                           ;pin_manager.c: 79: WPUE = 0x00;
  2248  0065  0024               	movlb	4	; select bank4
  2249  0066  0190               	clrf	16	;volatile
  2250                           
  2251                           ;pin_manager.c: 80: WPUB = 0x00;
  2252  0067  018D               	clrf	13	;volatile
  2253                           
  2254                           ;pin_manager.c: 81: WPUA = 0x00;
  2255  0068  018C               	clrf	12	;volatile
  2256                           
  2257                           ;pin_manager.c: 82: WPUC = 0x00;
  2258  0069  018E               	clrf	14	;volatile
  2259                           
  2260                           ;pin_manager.c: 83: OPTION_REGbits.nWPUEN = 1;
  2261  006A  0021               	movlb	1	; select bank1
  2262  006B  1795               	bsf	21,7	;volatile
  2263                           
  2264                           ;pin_manager.c: 89: APFCON1 = 0x00;
  2265  006C  0022               	movlb	2	; select bank2
  2266  006D  019D               	clrf	29	;volatile
  2267                           
  2268                           ;pin_manager.c: 90: APFCON2 = 0x00;
  2269  006E  019C               	clrf	28	;volatile
  2270                           
  2271                           ;pin_manager.c: 97: WPUA =0;
  2272  006F  0024               	movlb	4	; select bank4
  2273  0070  018C               	clrf	12	;volatile
  2274                           
  2275                           ;pin_manager.c: 98: WPUB =0;
  2276  0071  018D               	clrf	13	;volatile
  2277                           
  2278                           ;pin_manager.c: 99: WPUC =0;
  2279  0072  018E               	clrf	14	;volatile
  2280                           
  2281                           ;pin_manager.c: 101: OPTION_REGbits.nWPUEN=0;
  2282  0073  0021               	movlb	1	; select bank1
  2283  0074  1395               	bcf	21,7	;volatile
  2284                           
  2285                           ;pin_manager.c: 104: TRISA = 0;
  2286  0075  018C               	clrf	12	;volatile
  2287                           
  2288                           ;pin_manager.c: 105: TRISB = 0;
  2289  0076  018D               	clrf	13	;volatile
  2290                           
  2291                           ;pin_manager.c: 106: TRISC = 0;
  2292  0077  018E               	clrf	14	;volatile
  2293                           
  2294                           ;pin_manager.c: 108: TRISC6 = 0;
  2295  0078  130E               	bcf	14,6	;volatile
  2296                           
  2297                           ;pin_manager.c: 109: TRISC7 = 1;
  2298  0079  178E               	bsf	14,7	;volatile
  2299                           
  2300                           ;pin_manager.c: 111: ANSELA = 0b00000000;
  2301  007A  0023               	movlb	3	; select bank3
  2302  007B  018C               	clrf	12	;volatile
  2303                           
  2304                           ;pin_manager.c: 112: ANSELB = 0b00000000;
  2305  007C  018D               	clrf	13	;volatile
  2306                           
  2307                           ;pin_manager.c: 113: ANSELC = 0b00000000;
  2308  007D  018E               	clrf	14	;volatile
  2309                           
  2310                           ;pin_manager.c: 127: TRISBbits.TRISB0 = 1;
  2311  007E  0021               	movlb	1	; select bank1
  2312  007F  140D               	bsf	13,0	;volatile
  2313                           
  2314                           ;pin_manager.c: 128: TRISBbits.TRISB1 = 1;
  2315  0080  148D               	bsf	13,1	;volatile
  2316                           
  2317                           ;pin_manager.c: 129: TRISBbits.TRISB2 = 1;
  2318  0081  150D               	bsf	13,2	;volatile
  2319                           
  2320                           ;pin_manager.c: 130: TRISBbits.TRISB3 = 1;
  2321  0082  158D               	bsf	13,3	;volatile
  2322                           
  2323                           ;pin_manager.c: 131: TRISBbits.TRISB4 = 1;
  2324  0083  160D               	bsf	13,4	;volatile
  2325                           
  2326                           ;pin_manager.c: 133: TRISAbits.TRISA5 = 1;
  2327  0084  168C               	bsf	12,5	;volatile
  2328                           
  2329                           ;pin_manager.c: 134: TRISAbits.TRISA3 = 1;
  2330  0085  158C               	bsf	12,3	;volatile
  2331                           
  2332                           ;pin_manager.c: 135: TRISAbits.TRISA2 = 1;
  2333  0086  150C               	bsf	12,2	;volatile
  2334                           
  2335                           ;pin_manager.c: 136: TRISAbits.TRISA1 = 1;
  2336  0087  148C               	bsf	12,1	;volatile
  2337                           
  2338                           ;pin_manager.c: 139: ANSELBbits.ANSB0 = 1;
  2339  0088  0023               	movlb	3	; select bank3
  2340  0089  140D               	bsf	13,0	;volatile
  2341                           
  2342                           ;pin_manager.c: 140: ANSELBbits.ANSB1 = 1;
  2343  008A  148D               	bsf	13,1	;volatile
  2344                           
  2345                           ;pin_manager.c: 141: ANSELBbits.ANSB2 = 1;
  2346  008B  150D               	bsf	13,2	;volatile
  2347                           
  2348                           ;pin_manager.c: 142: ANSELBbits.ANSB3 = 1;
  2349  008C  158D               	bsf	13,3	;volatile
  2350                           
  2351                           ;pin_manager.c: 143: ANSELCbits.ANSC5 = 1;
  2352  008D  168E               	bsf	14,5	;volatile
  2353                           
  2354                           ;pin_manager.c: 146: ANSELAbits.ANSA5 = 1;
  2355  008E  168C               	bsf	12,5	;volatile
  2356                           
  2357                           ;pin_manager.c: 147: ANSELAbits.ANSA3 = 1;
  2358  008F  158C               	bsf	12,3	;volatile
  2359                           
  2360                           ;pin_manager.c: 148: ANSELAbits.ANSA2 = 1;
  2361  0090  150C               	bsf	12,2	;volatile
  2362                           
  2363                           ;pin_manager.c: 149: ANSELAbits.ANSA1 = 1;
  2364  0091  148C               	bsf	12,1	;volatile
  2365                           
  2366                           ;pin_manager.c: 152: PORTA = 0;
  2367  0092  0020               	movlb	0	; select bank0
  2368  0093  018C               	clrf	12	;volatile
  2369                           
  2370                           ;pin_manager.c: 153: PORTB = 0;
  2371  0094  018D               	clrf	13	;volatile
  2372                           
  2373                           ;pin_manager.c: 154: PORTC = 0;
  2374  0095  018E               	clrf	14	;volatile
  2375                           
  2376                           ;pin_manager.c: 156: INTCON = 0x00;
  2377  0096  018B               	clrf	11	;volatile
  2378                           
  2379                           ;pin_manager.c: 162: PCON = 0x00;
  2380  0097  0021               	movlb	1	; select bank1
  2381  0098  0196               	clrf	22	;volatile
  2382  0099  0064               	clrwdt	;# 
  2383                           
  2384                           ;pin_manager.c: 166: WDTCON=0B00010110;
  2385  009A  3016               	movlw	22
  2386  009B  0021               	movlb	1	; select bank1
  2387  009C  0097               	movwf	23	;volatile
  2388                           
  2389                           ;pin_manager.c: 169: TMR1H = ((0xFFFF-8000000/4/(1000)) >> 8);
  2390  009D  30F8               	movlw	248
  2391  009E  0020               	movlb	0	; select bank0
  2392  009F  0097               	movwf	23	;volatile
  2393                           
  2394                           ;pin_manager.c: 170: TMR1L = ((0xFFFF-8000000/4/(1000)) & 0xFF);
  2395  00A0  302F               	movlw	47
  2396  00A1  0096               	movwf	22	;volatile
  2397                           
  2398                           ;pin_manager.c: 171: T1CON = 0B00000000;
  2399  00A2  0198               	clrf	24	;volatile
  2400                           
  2401                           ;pin_manager.c: 172: TMR1IE = 1;
  2402  00A3  0021               	movlb	1	; select bank1
  2403  00A4  1411               	bsf	17,0	;volatile
  2404                           
  2405                           ;pin_manager.c: 173: T1CONbits.TMR1ON = 1;
  2406  00A5  0020               	movlb	0	; select bank0
  2407  00A6  1418               	bsf	24,0	;volatile
  2408                           
  2409                           ;pin_manager.c: 176: ADCON1bits.ADFM = 0;
  2410  00A7  0021               	movlb	1	; select bank1
  2411  00A8  139E               	bcf	30,7	;volatile
  2412                           
  2413                           ;pin_manager.c: 177: ADCON1bits.ADCS = 0;
  2414  00A9  308F               	movlw	-113
  2415  00AA  059E               	andwf	30,f	;volatile
  2416                           
  2417                           ;pin_manager.c: 178: ADCON1bits.ADPREF = 0;
  2418  00AB  30FC               	movlw	-4
  2419  00AC  059E               	andwf	30,f	;volatile
  2420                           
  2421                           ;pin_manager.c: 179: ADCON2bits.TRIGSEL = 0;
  2422  00AD  300F               	movlw	-241
  2423  00AE  059F               	andwf	31,f	;volatile
  2424                           
  2425                           ;pin_manager.c: 183: FVRCONbits.ADFVR = 0b10;
  2426  00AF  0022               	movlb	2	; select bank2
  2427  00B0  0817               	movf	23,w	;volatile
  2428  00B1  39FC               	andlw	-4
  2429  00B2  3802               	iorlw	2
  2430  00B3  0097               	movwf	23	;volatile
  2431                           
  2432                           ;pin_manager.c: 184: FVRCONbits.CDAFVR = 0;
  2433  00B4  30F3               	movlw	-13
  2434  00B5  0597               	andwf	23,f	;volatile
  2435                           
  2436                           ;pin_manager.c: 185: FVRCONbits.TSEN = 0;
  2437  00B6  1297               	bcf	23,5	;volatile
  2438                           
  2439                           ;pin_manager.c: 186: VREGCONbits.VREGPM=1;
  2440  00B7  0023               	movlb	3	; select bank3
  2441  00B8  1497               	bsf	23,1	;volatile
  2442                           
  2443                           ;pin_manager.c: 188: ADCON1bits.ADFM = 0;
  2444  00B9  0021               	movlb	1	; select bank1
  2445  00BA  139E               	bcf	30,7	;volatile
  2446                           
  2447                           ;pin_manager.c: 189: ADCON1bits.ADCS = 0;
  2448  00BB  308F               	movlw	-113
  2449  00BC  059E               	andwf	30,f	;volatile
  2450                           
  2451                           ;pin_manager.c: 190: ADCON1bits.ADNREF = 0;
  2452  00BD  111E               	bcf	30,2	;volatile
  2453                           
  2454                           ;pin_manager.c: 191: ADCON1bits.ADPREF = 0;
  2455  00BE  30FC               	movlw	-4
  2456  00BF  059E               	andwf	30,f	;volatile
  2457                           
  2458                           ;pin_manager.c: 193: INTCONbits.GIE = 1;
  2459  00C0  178B               	bsf	11,7	;volatile
  2460                           
  2461                           ;pin_manager.c: 194: INTCONbits.PEIE = 1;
  2462  00C1  170B               	bsf	11,6	;volatile
  2463                           
  2464                           ;pin_manager.c: 195: PIE1bits.TMR1IE = 1;
  2465  00C2  1411               	bsf	17,0	;volatile
  2466  00C3  0008               	return
  2467  00C4                     __end_of_PIN_MANAGER_Initialize:	
  2468                           
  2469                           	psect	text4
  2470  0210                     __ptext4:	
  2471 ;; *************** function _OSCILLATOR_Initialize *****************
  2472 ;; Defined at:
  2473 ;;		line 81 in file "mcc_generated_files/mcc.c"
  2474 ;; Parameters:    Size  Location     Type
  2475 ;;		None
  2476 ;; Auto vars:     Size  Location     Type
  2477 ;;		None
  2478 ;; Return value:  Size  Location     Type
  2479 ;;                  1    wreg      void 
  2480 ;; Registers used:
  2481 ;;		wreg, status,2
  2482 ;; Tracked objects:
  2483 ;;		On entry : 0/0
  2484 ;;		On exit  : 0/0
  2485 ;;		Unchanged: 0/0
  2486 ;; Data sizes:     COMMON   BANK0   BANK1   BANK2   BANK3   BANK4   BANK5   BANK6   BANK7   BANK8   BANK9  BANK10  BANK1
      +1  BANK12  BANK13  BANK14  BANK15  BANK16  BANK17  BANK18  BANK19  BANK20  BANK21  BANK22  BANK23  BANK24  BANK25
  2487 ;;      Params:         0       0       0       0       0       0       0       0       0       0       0       0       
      +0       0       0       0       0       0       0       0       0       0       0       0       0       0       0
  2488 ;;      Locals:         0       0       0       0       0       0       0       0       0       0       0       0       
      +0       0       0       0       0       0       0       0       0       0       0       0       0       0       0
  2489 ;;      Temps:          0       0       0       0       0       0       0       0       0       0       0       0       
      +0       0       0       0       0       0       0       0       0       0       0       0       0       0       0
  2490 ;;      Totals:         0       0       0       0       0       0       0       0       0       0       0       0       
      +0       0       0       0       0       0       0       0       0       0       0       0       0       0       0
  2491 ;;Total ram usage:        0 bytes
  2492 ;; Hardware stack levels used:    1
  2493 ;; Hardware stack levels required when called:    2
  2494 ;; This function calls:
  2495 ;;		Nothing
  2496 ;; This function is called by:
  2497 ;;		_SYSTEM_Initialize
  2498 ;; This function uses a non-reentrant model
  2499 ;;
  2500                           
  2501                           
  2502                           ;psect for function _OSCILLATOR_Initialize
  2503  0210                     _OSCILLATOR_Initialize:	
  2504                           
  2505                           ;mcc.c: 84: OSCCON = 0x72;
  2506                           
  2507                           ;incstack = 0
  2508                           ; Regs used in _OSCILLATOR_Initialize: [wreg+status,2]
  2509  0210  3072               	movlw	114
  2510  0211  0021               	movlb	1	; select bank1
  2511  0212  0099               	movwf	25	;volatile
  2512                           
  2513                           ;mcc.c: 86: OSCSTAT = 0x00;
  2514  0213  019A               	clrf	26	;volatile
  2515                           
  2516                           ;mcc.c: 88: OSCTUNE = 0x00;
  2517  0214  0198               	clrf	24	;volatile
  2518                           
  2519                           ;mcc.c: 90: BORCON = 0x00;
  2520  0215  0022               	movlb	2	; select bank2
  2521  0216  0196               	clrf	22	;volatile
  2522  0217  0008               	return
  2523  0218                     __end_of_OSCILLATOR_Initialize:	
  2524                           
  2525                           	psect	text5
  2526  01D0                     __ptext5:	
  2527 ;; *************** function _EUSART_Initialize *****************
  2528 ;; Defined at:
  2529 ;;		line 68 in file "mcc_generated_files/eusart.c"
  2530 ;; Parameters:    Size  Location     Type
  2531 ;;		None
  2532 ;; Auto vars:     Size  Location     Type
  2533 ;;		None
  2534 ;; Return value:  Size  Location     Type
  2535 ;;                  1    wreg      void 
  2536 ;; Registers used:
  2537 ;;		wreg, status,2
  2538 ;; Tracked objects:
  2539 ;;		On entry : 0/0
  2540 ;;		On exit  : 0/0
  2541 ;;		Unchanged: 0/0
  2542 ;; Data sizes:     COMMON   BANK0   BANK1   BANK2   BANK3   BANK4   BANK5   BANK6   BANK7   BANK8   BANK9  BANK10  BANK1
      +1  BANK12  BANK13  BANK14  BANK15  BANK16  BANK17  BANK18  BANK19  BANK20  BANK21  BANK22  BANK23  BANK24  BANK25
  2543 ;;      Params:         0       0       0       0       0       0       0       0       0       0       0       0       
      +0       0       0       0       0       0       0       0       0       0       0       0       0       0       0
  2544 ;;      Locals:         0       0       0       0       0       0       0       0       0       0       0       0       
      +0       0       0       0       0       0       0       0       0       0       0       0       0       0       0
  2545 ;;      Temps:          1       0       0       0       0       0       0       0       0       0       0       0       
      +0       0       0       0       0       0       0       0       0       0       0       0       0       0       0
  2546 ;;      Totals:         1       0       0       0       0       0       0       0       0       0       0       0       
      +0       0       0       0       0       0       0       0       0       0       0       0       0       0       0
  2547 ;;Total ram usage:        1 bytes
  2548 ;; Hardware stack levels used:    1
  2549 ;; Hardware stack levels required when called:    2
  2550 ;; This function calls:
  2551 ;;		Nothing
  2552 ;; This function is called by:
  2553 ;;		_SYSTEM_Initialize
  2554 ;; This function uses a non-reentrant model
  2555 ;;
  2556                           
  2557                           
  2558                           ;psect for function _EUSART_Initialize
  2559  01D0                     _EUSART_Initialize:	
  2560                           
  2561                           ;eusart.c: 71: PIE1bits.TXIE = 0;
  2562                           
  2563                           ;incstack = 0
  2564                           ; Regs used in _EUSART_Initialize: [wreg+status,2]
  2565  01D0  0021               	movlb	1	; select bank1
  2566  01D1  1211               	bcf	17,4	;volatile
  2567                           
  2568                           ;eusart.c: 75: BAUD1CON = 0x08;
  2569  01D2  3008               	movlw	8
  2570  01D3  0023               	movlb	3	; select bank3
  2571  01D4  009F               	movwf	31	;volatile
  2572                           
  2573                           ;eusart.c: 78: RC1STA = 0x80;
  2574  01D5  3080               	movlw	128
  2575  01D6  009D               	movwf	29	;volatile
  2576                           
  2577                           ;eusart.c: 81: TX1STA = 0x24;
  2578  01D7  3024               	movlw	36
  2579  01D8  009E               	movwf	30	;volatile
  2580                           
  2581                           ;eusart.c: 84: SP1BRGL = 0xCF;
  2582  01D9  30CF               	movlw	207
  2583  01DA  009B               	movwf	27	;volatile
  2584                           
  2585                           ;eusart.c: 87: SP1BRGH = 0x00;
  2586  01DB  019C               	clrf	28	;volatile
  2587                           
  2588                           ;eusart.c: 91: eusartTxHead = 0;
  2589  01DC  01FB               	clrf	_eusartTxHead	;volatile
  2590                           
  2591                           ;eusart.c: 92: eusartTxTail = 0;
  2592  01DD  01FA               	clrf	_eusartTxTail	;volatile
  2593                           
  2594                           ;eusart.c: 93: eusartTxBufferRemaining = sizeof(eusartTxBuffer);
  2595  01DE  3040               	movlw	64
  2596  01DF  00F2               	movwf	??_EUSART_Initialize
  2597  01E0  0872               	movf	??_EUSART_Initialize,w
  2598  01E1  0020               	movlb	0	; select bank0
  2599  01E2  00D4               	movwf	_eusartTxBufferRemaining	;volatile
  2600  01E3  0008               	return
  2601  01E4                     __end_of_EUSART_Initialize:	
  2602                           
  2603                           	psect	text6
  2604  00C4                     __ptext6:	
  2605 ;; *************** function _MedirADCs *****************
  2606 ;; Defined at:
  2607 ;;		line 114 in file "main.c"
  2608 ;; Parameters:    Size  Location     Type
  2609 ;;		None
  2610 ;; Auto vars:     Size  Location     Type
  2611 ;;  MedicionesAc   18    0[BANK0 ] int [9]
  2612 ;;  i               1   18[BANK0 ] unsigned char 
  2613 ;; Return value:  Size  Location     Type
  2614 ;;                  1    wreg      void 
  2615 ;; Registers used:
  2616 ;;		wreg, fsr0l, fsr0h, fsr1l, fsr1h, status,2, status,0
  2617 ;; Tracked objects:
  2618 ;;		On entry : 0/0
  2619 ;;		On exit  : 0/0
  2620 ;;		Unchanged: 0/0
  2621 ;; Data sizes:     COMMON   BANK0   BANK1   BANK2   BANK3   BANK4   BANK5   BANK6   BANK7   BANK8   BANK9  BANK10  BANK1
      +1  BANK12  BANK13  BANK14  BANK15  BANK16  BANK17  BANK18  BANK19  BANK20  BANK21  BANK22  BANK23  BANK24  BANK25
  2622 ;;      Params:         0       0       0       0       0       0       0       0       0       0       0       0       
      +0       0       0       0       0       0       0       0       0       0       0       0       0       0       0
  2623 ;;      Locals:         0      19       0       0       0       0       0       0       0       0       0       0       
      +0       0       0       0       0       0       0       0       0       0       0       0       0       0       0
  2624 ;;      Temps:          2       0       0       0       0       0       0       0       0       0       0       0       
      +0       0       0       0       0       0       0       0       0       0       0       0       0       0       0
  2625 ;;      Totals:         2      19       0       0       0       0       0       0       0       0       0       0       
      +0       0       0       0       0       0       0       0       0       0       0       0       0       0       0
  2626 ;;Total ram usage:       21 bytes
  2627 ;; Hardware stack levels used:    1
  2628 ;; Hardware stack levels required when called:    2
  2629 ;; This function calls:
  2630 ;;		Nothing
  2631 ;; This function is called by:
  2632 ;;		_main
  2633 ;; This function uses a non-reentrant model
  2634 ;;
  2635                           
  2636                           
  2637                           ;psect for function _MedirADCs
  2638  00C4                     _MedirADCs:	
  2639                           
  2640                           ;main.c: 116: uint8_t i;
  2641                           ;main.c: 117: int16_t MedicionesActuales[9];
  2642                           ;main.c: 119: if(RealizarMedicion)
  2643                           
  2644                           ;incstack = 0
  2645                           ; Regs used in _MedirADCs: [wreg-fsr1h+status,2+status,0]
  2646  00C4  0020               	movlb	0	; select bank0
  2647  00C5  0836               	movf	_RealizarMedicion,w
  2648  00C6  0437               	iorwf	_RealizarMedicion+1,w
  2649  00C7  1D03               	btfss	3,2
  2650  00C8  0008               	return
  2651                           
  2652                           ;main.c: 122: RealizarMedicion = 5;
  2653                           
  2654                           ;main.c: 120: return;
  2655  00C9  3005               	movlw	5
  2656  00CA  00B6               	movwf	_RealizarMedicion
  2657  00CB  3000               	movlw	0
  2658  00CC  00B7               	movwf	_RealizarMedicion+1
  2659                           
  2660                           ;main.c: 124: FVRCONbits.ADFVR = 0b10;
  2661  00CD  0022               	movlb	2	; select bank2
  2662  00CE  0817               	movf	23,w	;volatile
  2663  00CF  39FC               	andlw	-4
  2664  00D0  3802               	iorlw	2
  2665  00D1  0097               	movwf	23	;volatile
  2666                           
  2667                           ;main.c: 125: FVRCONbits.CDAFVR = 0;
  2668  00D2  30F3               	movlw	-13
  2669  00D3  0597               	andwf	23,f	;volatile
  2670                           
  2671                           ;main.c: 126: FVRCONbits.TSEN = 0;
  2672  00D4  1297               	bcf	23,5	;volatile
  2673                           
  2674                           ;main.c: 127: FVRCONbits.FVREN = 1;
  2675  00D5  1797               	bsf	23,7	;volatile
  2676                           
  2677                           ;main.c: 128: _delay((unsigned long)((10)*(8000000/4000.0)));
  2678  00D6  301A               	movlw	26
  2679  00D7  00F2               	movwf	??_MedirADCs
  2680  00D8  30F8               	movlw	248
  2681  00D9                     u547:	
  2682  00D9  0B89               	decfsz	9,f
  2683  00DA  28D9               	goto	u547
  2684  00DB  0BF2               	decfsz	??_MedirADCs,f
  2685  00DC  28D9               	goto	u547
  2686  00DD  3200               	nop2
  2687  00DE                     l259:	
  2688                           ;main.c: 129: while(!FVRCONbits.FVRRDY);
  2689                           
  2690  00DE  0022               	movlb	2	; select bank2
  2691  00DF  1F17               	btfss	23,6	;volatile
  2692  00E0  28DE               	goto	l259
  2693                           
  2694                           ;main.c: 132: ADCON0bits.ADRMD = 0;
  2695  00E1  0021               	movlb	1	; select bank1
  2696  00E2  139D               	bcf	29,7	;volatile
  2697                           
  2698                           ;main.c: 134: ADCON2bits.CHSN = 0b111;
  2699  00E3  081F               	movf	31,w	;volatile
  2700  00E4  39F0               	andlw	-16
  2701  00E5  3807               	iorlw	7
  2702  00E6  009F               	movwf	31	;volatile
  2703                           
  2704                           ;main.c: 135: ADCON1bits.ADFM = 1;
  2705  00E7  179E               	bsf	30,7	;volatile
  2706                           
  2707                           ;main.c: 136: ADCON1bits.ADCS = 0b110;
  2708  00E8  081E               	movf	30,w	;volatile
  2709  00E9  398F               	andlw	-113
  2710  00EA  3860               	iorlw	96
  2711  00EB  009E               	movwf	30	;volatile
  2712                           
  2713                           ;main.c: 137: ADCON1bits.ADNREF = 0;
  2714  00EC  111E               	bcf	30,2	;volatile
  2715                           
  2716                           ;main.c: 138: ADCON1bits.ADPREF = 0b11;
  2717  00ED  3003               	movlw	3
  2718  00EE  049E               	iorwf	30,f	;volatile
  2719                           
  2720                           ;main.c: 139: ADCON0bits.ADRMD = 0;
  2721  00EF  139D               	bcf	29,7	;volatile
  2722                           
  2723                           ;main.c: 142: for(i=0; i< 9; i++)
  2724  00F0  0020               	movlb	0	; select bank0
  2725  00F1  01CA               	clrf	MedirADCs@i
  2726  00F2                     L1:	
  2727  00F2  3009               	movlw	9
  2728  00F3  024A               	subwf	MedirADCs@i,w
  2729  00F4  1803               	btfsc	3,0
  2730  00F5  0008               	return
  2731                           
  2732                           ;main.c: 143: {
  2733                           ;main.c: 144: ADCON0bits.CHS = (OrdenConversionADC[i] << 2);
  2734  00F6  084A               	movf	MedirADCs@i,w
  2735  00F7  3E4B               	addlw	(low (_OrdenConversionADC| 0))& (0+255)
  2736  00F8  0086               	movwf	6
  2737  00F9  0187               	clrf	7
  2738  00FA  0801               	movf	1,w
  2739  00FB  00F2               	movwf	??_MedirADCs
  2740  00FC  3001               	movlw	1
  2741  00FD                     u315:	
  2742  00FD  35F2               	lslf	??_MedirADCs,f
  2743  00FE  3EFF               	addlw	-1
  2744  00FF  1D03               	skipz
  2745  0100  28FD               	goto	u315
  2746  0101  3572               	lslf	??_MedirADCs,w
  2747  0102  00F3               	movwf	??_MedirADCs+1
  2748  0103  0DF3               	rlf	??_MedirADCs+1,f
  2749  0104  0DF3               	rlf	??_MedirADCs+1,f
  2750  0105  0021               	movlb	1	; select bank1
  2751  0106  081D               	movf	29,w	;volatile
  2752  0107  0673               	xorwf	??_MedirADCs+1,w
  2753  0108  3983               	andlw	-125
  2754  0109  0673               	xorwf	??_MedirADCs+1,w
  2755  010A  009D               	movwf	29	;volatile
  2756                           
  2757                           ;main.c: 145: _delay((unsigned long)((20)*(8000000/4000000.0)));
  2758  010B  300D               	movlw	13
  2759  010C                     u557:	
  2760  010C  0B89               	decfsz	9,f
  2761  010D  290C               	goto	u557
  2762  010E  0000               	nop
  2763                           
  2764                           ;main.c: 146: ADON = 1;
  2765  010F  0021               	movlb	1	; select bank1
  2766  0110  141D               	bsf	29,0	;volatile
  2767                           
  2768                           ;main.c: 147: ADCON0bits.GO = 1;
  2769  0111  149D               	bsf	29,1	;volatile
  2770  0112                     l264:	
  2771                           ;main.c: 148: while(ADCON0bits.GO_nDONE);
  2772                           
  2773  0112  189D               	btfsc	29,1	;volatile
  2774  0113  2912               	goto	l264
  2775                           
  2776                           ;main.c: 149: MedicionesActuales[i] = (((uint16_t)ADRESH)<<8) | ADRESL;
  2777  0114  0020               	movlb	0	; select bank0
  2778  0115  354A               	lslf	MedirADCs@i,w
  2779  0116  3E38               	addlw	(low (MedirADCs@MedicionesActuales| 0))& (0+255)
  2780  0117  0086               	movwf	6
  2781  0118  0187               	clrf	7
  2782  0119  0021               	movlb	1	; select bank1
  2783  011A  081B               	movf	27,w	;volatile
  2784  011B  3FC0               	movwi [0]fsr1
  2785  011C  081C               	movf	28,w	;volatile
  2786  011D  3FC1               	movwi [1]fsr1
  2787                           
  2788                           ;main.c: 153: DatosADC.LecturasADC[i] = MedicionesActuales[i];
  2789  011E  0020               	movlb	0	; select bank0
  2790  011F  354A               	lslf	MedirADCs@i,w
  2791  0120  3E38               	addlw	(low (MedirADCs@MedicionesActuales| 0))& (0+255)
  2792  0121  0086               	movwf	6
  2793  0122  0187               	clrf	7
  2794  0123  354A               	lslf	MedirADCs@i,w
  2795  0124  3E20               	addlw	(low (_DatosADC| 0))& (0+255)
  2796  0125  0084               	movwf	4
  2797  0126  0185               	clrf	5
  2798  0127  3F40               	moviw [0]fsr1
  2799  0128  3F80               	movwi [0]fsr0
  2800  0129  3F41               	moviw [1]fsr1
  2801  012A  3F81               	movwi [1]fsr0
  2802                           
  2803                           ;main.c: 156: DatosADC.LecturasADC[i] = 0;
  2804                           
  2805                           ;main.c: 155: if(DatosADC.LecturasADC[i] < 0) {
  2806  012B  3001               	movlw	1
  2807  012C  00F2               	movwf	??_MedirADCs
  2808  012D  0872               	movf	??_MedirADCs,w
  2809  012E  07CA               	addwf	MedirADCs@i,f
  2810  012F  28F2               	goto	L1
  2811  0130                     __end_of_MedirADCs:	
  2812                           
  2813                           	psect	text7
  2814  0130                     __ptext7:	
  2815 ;; *************** function _EnviarDatos2ESP *****************
  2816 ;; Defined at:
  2817 ;;		line 85 in file "main.c"
  2818 ;; Parameters:    Size  Location     Type
  2819 ;;		None
  2820 ;; Auto vars:     Size  Location     Type
  2821 ;;  checksum        2    4[BANK0 ] unsigned int 
  2822 ;;  i               1    6[BANK0 ] unsigned char 
  2823 ;; Return value:  Size  Location     Type
  2824 ;;                  1    wreg      void 
  2825 ;; Registers used:
  2826 ;;		wreg, fsr0l, fsr0h, fsr1l, fsr1h, status,2, status,0, pclath, cstack
  2827 ;; Tracked objects:
  2828 ;;		On entry : 0/0
  2829 ;;		On exit  : 0/0
  2830 ;;		Unchanged: 0/0
  2831 ;; Data sizes:     COMMON   BANK0   BANK1   BANK2   BANK3   BANK4   BANK5   BANK6   BANK7   BANK8   BANK9  BANK10  BANK1
      +1  BANK12  BANK13  BANK14  BANK15  BANK16  BANK17  BANK18  BANK19  BANK20  BANK21  BANK22  BANK23  BANK24  BANK25
  2832 ;;      Params:         0       0       0       0       0       0       0       0       0       0       0       0       
      +0       0       0       0       0       0       0       0       0       0       0       0       0       0       0
  2833 ;;      Locals:         0       3       0       0       0       0       0       0       0       0       0       0       
      +0       0       0       0       0       0       0       0       0       0       0       0       0       0       0
  2834 ;;      Temps:          0       2       0       0       0       0       0       0       0       0       0       0       
      +0       0       0       0       0       0       0       0       0       0       0       0       0       0       0
  2835 ;;      Totals:         0       5       0       0       0       0       0       0       0       0       0       0       
      +0       0       0       0       0       0       0       0       0       0       0       0       0       0       0
  2836 ;;Total ram usage:        5 bytes
  2837 ;; Hardware stack levels used:    1
  2838 ;; Hardware stack levels required when called:    5
  2839 ;; This function calls:
  2840 ;;		_EUSART_Write
  2841 ;;		_printf
  2842 ;; This function is called by:
  2843 ;;		_main
  2844 ;; This function uses a non-reentrant model
  2845 ;;
  2846                           
  2847                           
  2848                           ;psect for function _EnviarDatos2ESP
  2849  0130                     _EnviarDatos2ESP:	
  2850                           
  2851                           ;main.c: 87: char i;
  2852                           ;main.c: 88: uint16_t checksum;
  2853                           ;main.c: 89: checksum=0;
  2854                           
  2855                           ;incstack = 0
  2856                           ; Regs used in _EnviarDatos2ESP: [wreg-fsr1h+status,2+status,0+pclath+cstack]
  2857  0130  0020               	movlb	0	; select bank0
  2858  0131  01BC               	clrf	EnviarDatos2ESP@checksum
  2859  0132  01BD               	clrf	EnviarDatos2ESP@checksum+1
  2860                           
  2861                           ;main.c: 91: if(EnviarDatos)
  2862  0133  0834               	movf	_EnviarDatos,w
  2863  0134  0435               	iorwf	_EnviarDatos+1,w
  2864  0135  1D03               	btfss	3,2
  2865  0136  0008               	return
  2866                           
  2867                           ;main.c: 94: EnviarDatos = 100;
  2868                           
  2869                           ;main.c: 92: return;
  2870  0137  3064               	movlw	100
  2871  0138  00B4               	movwf	_EnviarDatos
  2872  0139  3000               	movlw	0
  2873  013A  00B5               	movwf	_EnviarDatos+1
  2874                           
  2875                           ;main.c: 97: for(i = 0; i < 9; i++){
  2876  013B  01BE               	clrf	EnviarDatos2ESP@i
  2877  013C  3009               	movlw	9
  2878  013D  023E               	subwf	EnviarDatos2ESP@i,w
  2879  013E  1803               	btfsc	3,0
  2880  013F  2954               	goto	l1275
  2881  0140                     l1269:	
  2882                           
  2883                           ;main.c: 98: checksum ^= DatosADC.LecturasADC[i];
  2884  0140  353E               	lslf	EnviarDatos2ESP@i,w
  2885  0141  3E20               	addlw	(low (_DatosADC| 0))& (0+255)
  2886  0142  0086               	movwf	6
  2887  0143  0187               	clrf	7
  2888  0144  3F40               	moviw [0]fsr1
  2889  0145  00BA               	movwf	??_EnviarDatos2ESP
  2890  0146  3F41               	moviw [1]fsr1
  2891  0147  00BB               	movwf	??_EnviarDatos2ESP+1
  2892  0148  083A               	movf	??_EnviarDatos2ESP,w
  2893  0149  06BC               	xorwf	EnviarDatos2ESP@checksum,f
  2894  014A  083B               	movf	??_EnviarDatos2ESP+1,w
  2895  014B  06BD               	xorwf	EnviarDatos2ESP@checksum+1,f
  2896  014C  3001               	movlw	1
  2897  014D  00BA               	movwf	??_EnviarDatos2ESP
  2898  014E  083A               	movf	??_EnviarDatos2ESP,w
  2899  014F  07BE               	addwf	EnviarDatos2ESP@i,f
  2900  0150  3009               	movlw	9
  2901  0151  023E               	subwf	EnviarDatos2ESP@i,w
  2902  0152  1C03               	skipc
  2903  0153  2940               	goto	l1269
  2904  0154                     l1275:	
  2905                           
  2906                           ;main.c: 99: }
  2907                           ;main.c: 101: DatosADC.LecturasADC[9] = checksum;
  2908  0154  083D               	movf	EnviarDatos2ESP@checksum+1,w
  2909  0155  00B3               	movwf	_DatosADC+19
  2910  0156  083C               	movf	EnviarDatos2ESP@checksum,w
  2911  0157  00B2               	movwf	_DatosADC+18
  2912                           
  2913                           ;main.c: 103: printf("LECTURAS: ");
  2914  0158  30FC               	movlw	low (STR_1| (0+32768))
  2915  0159  00F5               	movwf	printf@f
  2916  015A  3081               	movlw	high (STR_1| (0+32768))
  2917  015B  00F6               	movwf	printf@f+1
  2918  015C  3181  2196  3181   	fcall	_printf
  2919                           
  2920                           ;main.c: 104: for(i=0;i<(9*2+2);i++)
  2921  015F  0020               	movlb	0	; select bank0
  2922  0160  01BE               	clrf	EnviarDatos2ESP@i
  2923  0161                     L2:	
  2924  0161  3014               	movlw	20
  2925  0162  023E               	subwf	EnviarDatos2ESP@i,w
  2926  0163  1803               	btfsc	3,0
  2927  0164  0008               	return
  2928                           
  2929                           ;main.c: 105: {
  2930                           ;main.c: 106: EUSART_Write(DatosADC.str[i]);
  2931  0165  083E               	movf	EnviarDatos2ESP@i,w
  2932  0166  3E20               	addlw	(low (_DatosADC| 0))& (0+255)
  2933  0167  0086               	movwf	6
  2934  0168  0187               	clrf	7
  2935  0169  0801               	movf	1,w
  2936  016A  3181  2173  3181   	fcall	_EUSART_Write
  2937  016D  3001               	movlw	1
  2938  016E  0020               	movlb	0	; select bank0
  2939  016F  00BA               	movwf	??_EnviarDatos2ESP
  2940  0170  083A               	movf	??_EnviarDatos2ESP,w
  2941  0171  07BE               	addwf	EnviarDatos2ESP@i,f
  2942  0172  2961               	goto	L2
  2943  0173                     __end_of_EnviarDatos2ESP:	
  2944                           
  2945                           	psect	text8
  2946  0196                     __ptext8:	
  2947 ;; *************** function _printf *****************
  2948 ;; Defined at:
  2949 ;;		line 464 in file "C:\Program Files (x86)\Microchip\xc8\v1.45\sources\common\doprnt.c"
  2950 ;; Parameters:    Size  Location     Type
  2951 ;;  f               2    5[COMMON] PTR const unsigned char 
  2952 ;;		 -> STR_1(11), 
  2953 ;; Auto vars:     Size  Location     Type
  2954 ;;  tmpval          4    0        struct .
  2955 ;;  cp              2    0        PTR const unsigned char 
  2956 ;;  len             2    0        unsigned int 
  2957 ;;  val             2    0        unsigned int 
  2958 ;;  c               1    1[BANK0 ] char 
  2959 ;;  ap              1    0[BANK0 ] PTR void [1]
  2960 ;;		 -> ?_printf(2), 
  2961 ;;  flag            1    0        unsigned char 
  2962 ;;  prec            1    0        char 
  2963 ;; Return value:  Size  Location     Type
  2964 ;;                  2    5[COMMON] int 
  2965 ;; Registers used:
  2966 ;;		wreg, fsr0l, fsr0h, fsr1l, fsr1h, status,2, status,0, pclath, cstack
  2967 ;; Tracked objects:
  2968 ;;		On entry : 0/0
  2969 ;;		On exit  : 0/0
  2970 ;;		Unchanged: 0/0
  2971 ;; Data sizes:     COMMON   BANK0   BANK1   BANK2   BANK3   BANK4   BANK5   BANK6   BANK7   BANK8   BANK9  BANK10  BANK1
      +1  BANK12  BANK13  BANK14  BANK15  BANK16  BANK17  BANK18  BANK19  BANK20  BANK21  BANK22  BANK23  BANK24  BANK25
  2972 ;;      Params:         2       0       0       0       0       0       0       0       0       0       0       0       
      +0       0       0       0       0       0       0       0       0       0       0       0       0       0       0
  2973 ;;      Locals:         0       2       0       0       0       0       0       0       0       0       0       0       
      +0       0       0       0       0       0       0       0       0       0       0       0       0       0       0
  2974 ;;      Temps:          3       0       0       0       0       0       0       0       0       0       0       0       
      +0       0       0       0       0       0       0       0       0       0       0       0       0       0       0
  2975 ;;      Totals:         5       2       0       0       0       0       0       0       0       0       0       0       
      +0       0       0       0       0       0       0       0       0       0       0       0       0       0       0
  2976 ;;Total ram usage:        7 bytes
  2977 ;; Hardware stack levels used:    1
  2978 ;; Hardware stack levels required when called:    4
  2979 ;; This function calls:
  2980 ;;		_putch
  2981 ;; This function is called by:
  2982 ;;		_EnviarDatos2ESP
  2983 ;; This function uses a non-reentrant model
  2984 ;;
  2985                           
  2986                           
  2987                           ;psect for function _printf
  2988  0196                     _printf:	
  2989                           
  2990                           ;doprnt.c: 466: va_list ap;
  2991                           ;doprnt.c: 499: signed char c;
  2992                           ;doprnt.c: 506: signed char prec;
  2993                           ;doprnt.c: 508: unsigned char flag;
  2994                           ;doprnt.c: 523: union {
  2995                           ;doprnt.c: 524: unsigned long vd;
  2996                           ;doprnt.c: 525: double integ;
  2997                           ;doprnt.c: 526: } tmpval;
  2998                           ;doprnt.c: 528: unsigned int val;
  2999                           ;doprnt.c: 529: unsigned len;
  3000                           ;doprnt.c: 530: const char * cp;
  3001                           ;doprnt.c: 533: *ap = __va_start();
  3002                           
  3003                           ;incstack = 0
  3004                           ; Regs used in _printf: [wreg-fsr1h+status,2+status,0+pclath+cstack]
  3005  0196  3077               	movlw	(low ((?_printf| 0+2)))& (0+255)
  3006  0197  00F7               	movwf	??_printf
  3007  0198  0877               	movf	??_printf,w
  3008  0199  0020               	movlb	0	; select bank0
  3009  019A  00B8               	movwf	printf@ap
  3010  019B                     l1253:	
  3011                           ;doprnt.c: 543: }
  3012                           ;doprnt.c: 1422: {
  3013                           
  3014                           ;doprnt.c: 542: continue;
  3015                           
  3016                           ;doprnt.c: 536: while(c = *f++) {
  3017                           
  3018  019B  0876               	movf	printf@f+1,w
  3019  019C  00F8               	movwf	??_printf+1
  3020  019D  0875               	movf	printf@f,w
  3021  019E  00F7               	movwf	??_printf
  3022  019F  0AF5               	incf	printf@f,f
  3023  01A0  1903               	skipnz
  3024  01A1  0AF6               	incf	printf@f+1,f
  3025  01A2  0877               	movf	??_printf,w
  3026  01A3  0084               	movwf	4
  3027  01A4  0878               	movf	??_printf+1,w
  3028  01A5  0085               	movwf	5
  3029  01A6  0800               	movf	0,w	;code access
  3030  01A7  00F9               	movwf	??_printf+2
  3031  01A8  0879               	movf	??_printf+2,w
  3032  01A9  0020               	movlb	0	; select bank0
  3033  01AA  00B9               	movwf	printf@c
  3034  01AB  0839               	movf	printf@c,w
  3035  01AC  1903               	btfsc	3,2
  3036  01AD  0008               	return
  3037                           
  3038                           ;doprnt.c: 540: {
  3039                           ;doprnt.c: 541: (putch(c) );
  3040  01AE  0839               	movf	printf@c,w
  3041  01AF  3182  2224  3181   	fcall	_putch
  3042  01B2  299B               	goto	l1253
  3043  01B3                     __end_of_printf:	
  3044                           ;doprnt.c: 1469: }
  3045                           ;doprnt.c: 1533: }
  3046                           ;doprnt.c: 1540: return 0;
  3047                           ;	Return value of _printf is never used
  3048                           
  3049                           
  3050                           	psect	text9
  3051  0224                     __ptext9:	
  3052 ;; *************** function _putch *****************
  3053 ;; Defined at:
  3054 ;;		line 142 in file "mcc_generated_files/eusart.c"
  3055 ;; Parameters:    Size  Location     Type
  3056 ;;  txData          1    wreg     unsigned char 
  3057 ;; Auto vars:     Size  Location     Type
  3058 ;;  txData          1    4[COMMON] unsigned char 
  3059 ;; Return value:  Size  Location     Type
  3060 ;;                  1    wreg      void 
  3061 ;; Registers used:
  3062 ;;		wreg, fsr1l, fsr1h, status,2, status,0, pclath, cstack
  3063 ;; Tracked objects:
  3064 ;;		On entry : 0/0
  3065 ;;		On exit  : 0/0
  3066 ;;		Unchanged: 0/0
  3067 ;; Data sizes:     COMMON   BANK0   BANK1   BANK2   BANK3   BANK4   BANK5   BANK6   BANK7   BANK8   BANK9  BANK10  BANK1
      +1  BANK12  BANK13  BANK14  BANK15  BANK16  BANK17  BANK18  BANK19  BANK20  BANK21  BANK22  BANK23  BANK24  BANK25
  3068 ;;      Params:         0       0       0       0       0       0       0       0       0       0       0       0       
      +0       0       0       0       0       0       0       0       0       0       0       0       0       0       0
  3069 ;;      Locals:         1       0       0       0       0       0       0       0       0       0       0       0       
      +0       0       0       0       0       0       0       0       0       0       0       0       0       0       0
  3070 ;;      Temps:          0       0       0       0       0       0       0       0       0       0       0       0       
      +0       0       0       0       0       0       0       0       0       0       0       0       0       0       0
  3071 ;;      Totals:         1       0       0       0       0       0       0       0       0       0       0       0       
      +0       0       0       0       0       0       0       0       0       0       0       0       0       0       0
  3072 ;;Total ram usage:        1 bytes
  3073 ;; Hardware stack levels used:    1
  3074 ;; Hardware stack levels required when called:    3
  3075 ;; This function calls:
  3076 ;;		_EUSART_Write
  3077 ;; This function is called by:
  3078 ;;		_printf
  3079 ;; This function uses a non-reentrant model
  3080 ;;
  3081                           
  3082                           
  3083                           ;psect for function _putch
  3084  0224                     _putch:	
  3085                           
  3086                           ;incstack = 0
  3087                           ; Regs used in _putch: [wreg+fsr1l+fsr1h+status,2+status,0+pclath+cstack]
  3088                           ;putch@txData stored from wreg
  3089  0224  00F4               	movwf	putch@txData
  3090                           
  3091                           ;eusart.c: 144: EUSART_Write(txData);
  3092  0225  0874               	movf	putch@txData,w
  3093  0226  3181  2173         	fcall	_EUSART_Write
  3094  0228  0008               	return
  3095  0229                     __end_of_putch:	
  3096                           
  3097                           	psect	text10
  3098  0173                     __ptext10:	
  3099 ;; *************** function _EUSART_Write *****************
  3100 ;; Defined at:
  3101 ;;		line 114 in file "mcc_generated_files/eusart.c"
  3102 ;; Parameters:    Size  Location     Type
  3103 ;;  txData          1    wreg     unsigned char 
  3104 ;; Auto vars:     Size  Location     Type
  3105 ;;  txData          1    3[COMMON] unsigned char 
  3106 ;; Return value:  Size  Location     Type
  3107 ;;                  1    wreg      void 
  3108 ;; Registers used:
  3109 ;;		wreg, fsr1l, fsr1h, status,2, status,0
  3110 ;; Tracked objects:
  3111 ;;		On entry : 0/0
  3112 ;;		On exit  : 0/0
  3113 ;;		Unchanged: 0/0
  3114 ;; Data sizes:     COMMON   BANK0   BANK1   BANK2   BANK3   BANK4   BANK5   BANK6   BANK7   BANK8   BANK9  BANK10  BANK1
      +1  BANK12  BANK13  BANK14  BANK15  BANK16  BANK17  BANK18  BANK19  BANK20  BANK21  BANK22  BANK23  BANK24  BANK25
  3115 ;;      Params:         0       0       0       0       0       0       0       0       0       0       0       0       
      +0       0       0       0       0       0       0       0       0       0       0       0       0       0       0
  3116 ;;      Locals:         1       0       0       0       0       0       0       0       0       0       0       0       
      +0       0       0       0       0       0       0       0       0       0       0       0       0       0       0
  3117 ;;      Temps:          1       0       0       0       0       0       0       0       0       0       0       0       
      +0       0       0       0       0       0       0       0       0       0       0       0       0       0       0
  3118 ;;      Totals:         2       0       0       0       0       0       0       0       0       0       0       0       
      +0       0       0       0       0       0       0       0       0       0       0       0       0       0       0
  3119 ;;Total ram usage:        2 bytes
  3120 ;; Hardware stack levels used:    1
  3121 ;; Hardware stack levels required when called:    2
  3122 ;; This function calls:
  3123 ;;		Nothing
  3124 ;; This function is called by:
  3125 ;;		_putch
  3126 ;;		_EnviarDatos2ESP
  3127 ;; This function uses a non-reentrant model
  3128 ;;
  3129                           
  3130                           
  3131                           ;psect for function _EUSART_Write
  3132  0173                     _EUSART_Write:	
  3133                           
  3134                           ;incstack = 0
  3135                           ; Regs used in _EUSART_Write: [wreg+fsr1l+fsr1h+status,2+status,0]
  3136                           ;EUSART_Write@txData stored from wreg
  3137  0173  00F3               	movwf	EUSART_Write@txData
  3138  0174                     l1231:	
  3139                           ;eusart.c: 117: {
  3140                           
  3141                           ;eusart.c: 116: while(0 == eusartTxBufferRemaining)
  3142                           
  3143  0174  0020               	movlb	0	; select bank0
  3144  0175  0854               	movf	_eusartTxBufferRemaining,w	;volatile
  3145  0176  1903               	btfsc	3,2
  3146  0177  2974               	goto	l1231
  3147                           
  3148                           ;eusart.c: 118: }
  3149                           ;eusart.c: 120: if(0 == PIE1bits.TXIE)
  3150  0178  0021               	movlb	1	; select bank1
  3151  0179  1A11               	btfsc	17,4	;volatile
  3152  017A  297F               	goto	l99
  3153                           
  3154                           ;eusart.c: 121: {
  3155                           ;eusart.c: 122: TX1REG = txData;
  3156  017B  0873               	movf	EUSART_Write@txData,w
  3157  017C  0023               	movlb	3	; select bank3
  3158  017D  009A               	movwf	26	;volatile
  3159                           
  3160                           ;eusart.c: 123: }
  3161  017E  2993               	goto	l1245
  3162  017F                     l99:	
  3163                           
  3164                           ;eusart.c: 124: else
  3165                           ;eusart.c: 125: {
  3166                           ;eusart.c: 126: PIE1bits.TXIE = 0;
  3167  017F  1211               	bcf	17,4	;volatile
  3168                           
  3169                           ;eusart.c: 127: eusartTxBuffer[eusartTxHead++] = txData;
  3170  0180  0873               	movf	EUSART_Write@txData,w
  3171  0181  00F2               	movwf	??_EUSART_Write
  3172  0182  087B               	movf	_eusartTxHead,w
  3173  0183  3EA0               	addlw	(low (_eusartTxBuffer| 0))& (0+255)
  3174  0184  0086               	movwf	6
  3175  0185  0187               	clrf	7
  3176  0186  0872               	movf	??_EUSART_Write,w
  3177  0187  0081               	movwf	1
  3178  0188  3001               	movlw	1
  3179  0189  00F2               	movwf	??_EUSART_Write
  3180  018A  0872               	movf	??_EUSART_Write,w
  3181  018B  07FB               	addwf	_eusartTxHead,f	;volatile
  3182                           
  3183                           ;eusart.c: 128: if(sizeof(eusartTxBuffer) <= eusartTxHead)
  3184  018C  3040               	movlw	64
  3185  018D  027B               	subwf	_eusartTxHead,w	;volatile
  3186  018E  1803               	btfsc	3,0
  3187                           
  3188                           ;eusart.c: 129: {
  3189                           ;eusart.c: 130: eusartTxHead = 0;
  3190  018F  01FB               	clrf	_eusartTxHead	;volatile
  3191                           
  3192                           ;eusart.c: 131: }
  3193                           ;eusart.c: 132: eusartTxBufferRemaining--;
  3194  0190  3001               	movlw	1
  3195  0191  0020               	movlb	0	; select bank0
  3196  0192  02D4               	subwf	_eusartTxBufferRemaining,f	;volatile
  3197  0193                     l1245:	
  3198                           
  3199                           ;eusart.c: 133: }
  3200                           ;eusart.c: 134: PIE1bits.TXIE = 1;
  3201  0193  0021               	movlb	1	; select bank1
  3202  0194  1611               	bsf	17,4	;volatile
  3203  0195  0008               	return
  3204  0196                     __end_of_EUSART_Write:	
  3205                           
  3206                           	psect	intentry
  3207  0004                     __pintentry:	
  3208 ;; *************** function _INTERRUPT_InterruptManager *****************
  3209 ;; Defined at:
  3210 ;;		line 51 in file "mcc_generated_files/interrupt_manager.c"
  3211 ;; Parameters:    Size  Location     Type
  3212 ;;		None
  3213 ;; Auto vars:     Size  Location     Type
  3214 ;;		None
  3215 ;; Return value:  Size  Location     Type
  3216 ;;                  1    wreg      void 
  3217 ;; Registers used:
  3218 ;;		wreg, fsr1l, fsr1h, status,2, status,0, pclath, cstack
  3219 ;; Tracked objects:
  3220 ;;		On entry : 0/0
  3221 ;;		On exit  : 0/0
  3222 ;;		Unchanged: 0/0
  3223 ;; Data sizes:     COMMON   BANK0   BANK1   BANK2   BANK3   BANK4   BANK5   BANK6   BANK7   BANK8   BANK9  BANK10  BANK1
      +1  BANK12  BANK13  BANK14  BANK15  BANK16  BANK17  BANK18  BANK19  BANK20  BANK21  BANK22  BANK23  BANK24  BANK25
  3224 ;;      Params:         0       0       0       0       0       0       0       0       0       0       0       0       
      +0       0       0       0       0       0       0       0       0       0       0       0       0       0       0
  3225 ;;      Locals:         0       0       0       0       0       0       0       0       0       0       0       0       
      +0       0       0       0       0       0       0       0       0       0       0       0       0       0       0
  3226 ;;      Temps:          1       0       0       0       0       0       0       0       0       0       0       0       
      +0       0       0       0       0       0       0       0       0       0       0       0       0       0       0
  3227 ;;      Totals:         1       0       0       0       0       0       0       0       0       0       0       0       
      +0       0       0       0       0       0       0       0       0       0       0       0       0       0       0
  3228 ;;Total ram usage:        1 bytes
  3229 ;; Hardware stack levels used:    1
  3230 ;; Hardware stack levels required when called:    1
  3231 ;; This function calls:
  3232 ;;		_EUSART_Transmit_ISR
  3233 ;; This function is called by:
  3234 ;;		Interrupt level 1
  3235 ;; This function uses a non-reentrant model
  3236 ;;
  3237                           
  3238  0004                     _INTERRUPT_InterruptManager:	
  3239                           
  3240                           ;incstack = 0
  3241  0004  147E               	bsf	126,0	;set compiler interrupt flag (level 1)
  3242                           
  3243                           ; Regs used in _INTERRUPT_InterruptManager: [wreg+fsr1l+fsr1h+status,2+status,0+pclath+c
      +                          stack]
  3244  0005  3180               	pagesel	$
  3245  0006  0020               	movlb	0	; select bank0
  3246  0007  087F               	movf	127,w
  3247  0008  00F1               	movwf	??_INTERRUPT_InterruptManager
  3248                           
  3249                           ;interrupt_manager.c: 54: if(INTCONbits.PEIE == 1)
  3250  0009  1F0B               	btfss	11,6	;volatile
  3251  000A  2814               	goto	i1l1205
  3252                           
  3253                           ;interrupt_manager.c: 55: {
  3254                           ;interrupt_manager.c: 56: if(PIE1bits.TXIE == 1 && PIR1bits.TXIF == 1)
  3255  000B  0021               	movlb	1	; select bank1
  3256  000C  1E11               	btfss	17,4	;volatile
  3257  000D  2814               	goto	i1l1205
  3258  000E  0020               	movlb	0	; select bank0
  3259  000F  1E11               	btfss	17,4	;volatile
  3260  0010  2814               	goto	i1l1205
  3261                           
  3262                           ;interrupt_manager.c: 57: {
  3263                           ;interrupt_manager.c: 58: EUSART_Transmit_ISR();
  3264  0011  3181  21B3  3180   	fcall	_EUSART_Transmit_ISR
  3265  0014                     i1l1205:	
  3266                           
  3267                           ;interrupt_manager.c: 59: }
  3268                           ;interrupt_manager.c: 60: }
  3269                           ;interrupt_manager.c: 62: if (TMR1IF == 1)
  3270  0014  0020               	movlb	0	; select bank0
  3271  0015  1C11               	btfss	17,0	;volatile
  3272  0016  282C               	goto	i1l28
  3273                           
  3274                           ;interrupt_manager.c: 63: {
  3275                           ;interrupt_manager.c: 64: TMR1IF = 0;
  3276  0017  1011               	bcf	17,0	;volatile
  3277                           
  3278                           ;interrupt_manager.c: 65: TMR1H = ((0xFFFF-8000000/4/(1000)) >> 8);
  3279  0018  30F8               	movlw	248
  3280  0019  0097               	movwf	23	;volatile
  3281                           
  3282                           ;interrupt_manager.c: 66: TMR1L = ((0xFFFF-8000000/4/(1000)) & 0xFF);
  3283  001A  302F               	movlw	47
  3284  001B  0096               	movwf	22	;volatile
  3285                           
  3286                           ;interrupt_manager.c: 68: if(RealizarMedicion) RealizarMedicion--;
  3287  001C  0836               	movf	_RealizarMedicion,w
  3288  001D  0437               	iorwf	_RealizarMedicion+1,w
  3289  001E  1903               	btfsc	3,2
  3290  001F  2824               	goto	i1l1215
  3291  0020  3001               	movlw	1
  3292  0021  02B6               	subwf	_RealizarMedicion,f
  3293  0022  3000               	movlw	0
  3294  0023  3BB7               	subwfb	_RealizarMedicion+1,f
  3295  0024                     i1l1215:	
  3296                           
  3297                           ;interrupt_manager.c: 69: if(EnviarDatos) EnviarDatos--;
  3298  0024  0834               	movf	_EnviarDatos,w
  3299  0025  0435               	iorwf	_EnviarDatos+1,w
  3300  0026  1903               	btfsc	3,2
  3301  0027  282C               	goto	i1l28
  3302  0028  3001               	movlw	1
  3303  0029  02B4               	subwf	_EnviarDatos,f
  3304  002A  3000               	movlw	0
  3305  002B  3BB5               	subwfb	_EnviarDatos+1,f
  3306  002C                     i1l28:	
  3307  002C  0871               	movf	??_INTERRUPT_InterruptManager,w
  3308  002D  00FF               	movwf	127
  3309  002E  107E               	bcf	126,0	;clear compiler interrupt flag (level 1)
  3310  002F  0009               	retfie
  3311  0030                     __end_of_INTERRUPT_InterruptManager:	
  3312                           
  3313                           	psect	text12
  3314  01B3                     __ptext12:	
  3315 ;; *************** function _EUSART_Transmit_ISR *****************
  3316 ;; Defined at:
  3317 ;;		line 147 in file "mcc_generated_files/eusart.c"
  3318 ;; Parameters:    Size  Location     Type
  3319 ;;		None
  3320 ;; Auto vars:     Size  Location     Type
  3321 ;;		None
  3322 ;; Return value:  Size  Location     Type
  3323 ;;                  1    wreg      void 
  3324 ;; Registers used:
  3325 ;;		wreg, fsr1l, fsr1h, status,2, status,0
  3326 ;; Tracked objects:
  3327 ;;		On entry : 0/0
  3328 ;;		On exit  : 0/0
  3329 ;;		Unchanged: 0/0
  3330 ;; Data sizes:     COMMON   BANK0   BANK1   BANK2   BANK3   BANK4   BANK5   BANK6   BANK7   BANK8   BANK9  BANK10  BANK1
      +1  BANK12  BANK13  BANK14  BANK15  BANK16  BANK17  BANK18  BANK19  BANK20  BANK21  BANK22  BANK23  BANK24  BANK25
  3331 ;;      Params:         0       0       0       0       0       0       0       0       0       0       0       0       
      +0       0       0       0       0       0       0       0       0       0       0       0       0       0       0
  3332 ;;      Locals:         0       0       0       0       0       0       0       0       0       0       0       0       
      +0       0       0       0       0       0       0       0       0       0       0       0       0       0       0
  3333 ;;      Temps:          1       0       0       0       0       0       0       0       0       0       0       0       
      +0       0       0       0       0       0       0       0       0       0       0       0       0       0       0
  3334 ;;      Totals:         1       0       0       0       0       0       0       0       0       0       0       0       
      +0       0       0       0       0       0       0       0       0       0       0       0       0       0       0
  3335 ;;Total ram usage:        1 bytes
  3336 ;; Hardware stack levels used:    1
  3337 ;; This function calls:
  3338 ;;		Nothing
  3339 ;; This function is called by:
  3340 ;;		_INTERRUPT_InterruptManager
  3341 ;; This function uses a non-reentrant model
  3342 ;;
  3343                           
  3344                           
  3345                           ;psect for function _EUSART_Transmit_ISR
  3346  01B3                     _EUSART_Transmit_ISR:	
  3347                           
  3348                           ;eusart.c: 151: if(sizeof(eusartTxBuffer) > eusartTxBufferRemaining)
  3349                           
  3350                           ;incstack = 0
  3351                           ; Regs used in _EUSART_Transmit_ISR: [wreg+fsr1l+fsr1h+status,2+status,0]
  3352  01B3  3040               	movlw	64
  3353  01B4  0020               	movlb	0	; select bank0
  3354  01B5  0254               	subwf	_eusartTxBufferRemaining,w	;volatile
  3355  01B6  1803               	skipnc
  3356  01B7  29CD               	goto	i1l111
  3357                           
  3358                           ;eusart.c: 152: {
  3359                           ;eusart.c: 153: TX1REG = eusartTxBuffer[eusartTxTail++];
  3360  01B8  087A               	movf	_eusartTxTail,w
  3361  01B9  3EA0               	addlw	(low (_eusartTxBuffer| 0))& (0+255)
  3362  01BA  0086               	movwf	6
  3363  01BB  0187               	clrf	7
  3364  01BC  0801               	movf	1,w
  3365  01BD  0023               	movlb	3	; select bank3
  3366  01BE  009A               	movwf	26	;volatile
  3367  01BF  3001               	movlw	1
  3368  01C0  00F0               	movwf	??_EUSART_Transmit_ISR
  3369  01C1  0870               	movf	??_EUSART_Transmit_ISR,w
  3370  01C2  07FA               	addwf	_eusartTxTail,f	;volatile
  3371                           
  3372                           ;eusart.c: 154: if(sizeof(eusartTxBuffer) <= eusartTxTail)
  3373  01C3  3040               	movlw	64
  3374  01C4  027A               	subwf	_eusartTxTail,w	;volatile
  3375  01C5  1803               	btfsc	3,0
  3376                           
  3377                           ;eusart.c: 155: {
  3378                           ;eusart.c: 156: eusartTxTail = 0;
  3379  01C6  01FA               	clrf	_eusartTxTail	;volatile
  3380                           
  3381                           ;eusart.c: 157: }
  3382                           ;eusart.c: 158: eusartTxBufferRemaining++;
  3383  01C7  3001               	movlw	1
  3384  01C8  00F0               	movwf	??_EUSART_Transmit_ISR
  3385  01C9  0870               	movf	??_EUSART_Transmit_ISR,w
  3386  01CA  0020               	movlb	0	; select bank0
  3387  01CB  07D4               	addwf	_eusartTxBufferRemaining,f	;volatile
  3388                           
  3389                           ;eusart.c: 159: }
  3390  01CC  0008               	return
  3391  01CD                     i1l111:	
  3392                           
  3393                           ;eusart.c: 160: else
  3394                           ;eusart.c: 161: {
  3395                           ;eusart.c: 162: PIE1bits.TXIE = 0;
  3396  01CD  0021               	movlb	1	; select bank1
  3397  01CE  1211               	bcf	17,4	;volatile
  3398  01CF  0008               	return
  3399  01D0                     __end_of_EUSART_Transmit_ISR:	
  3400  007E                     btemp	set	126	;btemp
  3401  007E                     int$flags	set	126
  3402  007E                     wtemp0	set	126


Data Sizes:
    Strings     11
    Constant    0
    Data        9
    BSS         90
    Persistent  1
    Stack       0

Auto Spaces:
    Space          Size  Autos    Used
    COMMON           14     10      12
    BANK0            80     19      53
    BANK1            80      0      64
    BANK2            80      0       0
    BANK3            80      0       0
    BANK4            80      0       0
    BANK5            80      0       0
    BANK6            80      0       0
    BANK7            80      0       0
    BANK8            80      0       0
    BANK9            80      0       0
    BANK10           80      0       0
    BANK11           80      0       0
    BANK12           80      0       0
    BANK13           80      0       0
    BANK14           80      0       0
    BANK15           80      0       0
    BANK16           80      0       0
    BANK17           80      0       0
    BANK18           80      0       0
    BANK19           80      0       0
    BANK20           80      0       0
    BANK21           80      0       0
    BANK22           80      0       0
    BANK23           80      0       0
    BANK24           80      0       0
    BANK25           32      0       0

Pointer List with Targets:

    printf@f	PTR const unsigned char  size(2) Largest target is 11
		 -> STR_1(CODE[11]), 

    printf@ap	PTR void [1] size(1) Largest target is 2
		 -> ?_printf(COMMON[2]), 


Critical Paths under _main in COMMON

    _SYSTEM_Initialize->_EUSART_Initialize
    _EnviarDatos2ESP->_printf
    _printf->_putch
    _putch->_EUSART_Write

Critical Paths under _INTERRUPT_InterruptManager in COMMON

    _INTERRUPT_InterruptManager->_EUSART_Transmit_ISR

Critical Paths under _main in BANK0

    _main->_MedirADCs
    _EnviarDatos2ESP->_printf

Critical Paths under _INTERRUPT_InterruptManager in BANK0

    None.

Critical Paths under _main in BANK1

    None.

Critical Paths under _INTERRUPT_InterruptManager in BANK1

    None.

Critical Paths under _main in BANK2

    None.

Critical Paths under _INTERRUPT_InterruptManager in BANK2

    None.

Critical Paths under _main in BANK3

    None.

Critical Paths under _INTERRUPT_InterruptManager in BANK3

    None.

Critical Paths under _main in BANK4

    None.

Critical Paths under _INTERRUPT_InterruptManager in BANK4

    None.

Critical Paths under _main in BANK5

    None.

Critical Paths under _INTERRUPT_InterruptManager in BANK5

    None.

Critical Paths under _main in BANK6

    None.

Critical Paths under _INTERRUPT_InterruptManager in BANK6

    None.

Critical Paths under _main in BANK7

    None.

Critical Paths under _INTERRUPT_InterruptManager in BANK7

    None.

Critical Paths under _main in BANK8

    None.

Critical Paths under _INTERRUPT_InterruptManager in BANK8

    None.

Critical Paths under _main in BANK9

    None.

Critical Paths under _INTERRUPT_InterruptManager in BANK9

    None.

Critical Paths under _main in BANK10

    None.

Critical Paths under _INTERRUPT_InterruptManager in BANK10

    None.

Critical Paths under _main in BANK11

    None.

Critical Paths under _INTERRUPT_InterruptManager in BANK11

    None.

Critical Paths under _main in BANK12

    None.

Critical Paths under _INTERRUPT_InterruptManager in BANK12

    None.

Critical Paths under _main in BANK13

    None.

Critical Paths under _INTERRUPT_InterruptManager in BANK13

    None.

Critical Paths under _main in BANK14

    None.

Critical Paths under _INTERRUPT_InterruptManager in BANK14

    None.

Critical Paths under _main in BANK15

    None.

Critical Paths under _INTERRUPT_InterruptManager in BANK15

    None.

Critical Paths under _main in BANK16

    None.

Critical Paths under _INTERRUPT_InterruptManager in BANK16

    None.

Critical Paths under _main in BANK17

    None.

Critical Paths under _INTERRUPT_InterruptManager in BANK17

    None.

Critical Paths under _main in BANK18

    None.

Critical Paths under _INTERRUPT_InterruptManager in BANK18

    None.

Critical Paths under _main in BANK19

    None.

Critical Paths under _INTERRUPT_InterruptManager in BANK19

    None.

Critical Paths under _main in BANK20

    None.

Critical Paths under _INTERRUPT_InterruptManager in BANK20

    None.

Critical Paths under _main in BANK21

    None.

Critical Paths under _INTERRUPT_InterruptManager in BANK21

    None.

Critical Paths under _main in BANK22

    None.

Critical Paths under _INTERRUPT_InterruptManager in BANK22

    None.

Critical Paths under _main in BANK23

    None.

Critical Paths under _INTERRUPT_InterruptManager in BANK23

    None.

Critical Paths under _main in BANK24

    None.

Critical Paths under _INTERRUPT_InterruptManager in BANK24

    None.

Critical Paths under _main in BANK25

    None.

Critical Paths under _INTERRUPT_InterruptManager in BANK25

    None.

Call Graph Tables:

 ---------------------------------------------------------------------------------
 (Depth) Function   	        Calls       Base Space   Used Autos Params    Refs
 ---------------------------------------------------------------------------------
 (0) _main                                                 2     2      0     738
                    _EnviarDatos2ESP
                          _MedirADCs
                  _SYSTEM_Initialize
 ---------------------------------------------------------------------------------
 (1) _SYSTEM_Initialize                                    0     0      0       0
                  _EUSART_Initialize
              _OSCILLATOR_Initialize
             _PIN_MANAGER_Initialize
                     _WDT_Initialize
 ---------------------------------------------------------------------------------
 (2) _WDT_Initialize                                       0     0      0       0
 ---------------------------------------------------------------------------------
 (2) _PIN_MANAGER_Initialize                               0     0      0       0
 ---------------------------------------------------------------------------------
 (2) _OSCILLATOR_Initialize                                0     0      0       0
 ---------------------------------------------------------------------------------
 (2) _EUSART_Initialize                                    1     1      0       0
                                              2 COMMON     1     1      0
 ---------------------------------------------------------------------------------
 (1) _MedirADCs                                           21    21      0     203
                                              2 COMMON     2     2      0
                                              0 BANK0     19    19      0
 ---------------------------------------------------------------------------------
 (1) _EnviarDatos2ESP                                      5     5      0     535
                                              2 BANK0      5     5      0
                       _EUSART_Write
                             _printf
 ---------------------------------------------------------------------------------
 (2) _printf                                              19    17      2     238
                                              5 COMMON     5     3      2
                                              0 BANK0      2     2      0
                              _putch
 ---------------------------------------------------------------------------------
 (3) _putch                                                1     1      0      93
                                              4 COMMON     1     1      0
                       _EUSART_Write
 ---------------------------------------------------------------------------------
 (4) _EUSART_Write                                         2     2      0      62
                                              2 COMMON     2     2      0
 ---------------------------------------------------------------------------------
 Estimated maximum stack depth 4
 ---------------------------------------------------------------------------------
 (Depth) Function   	        Calls       Base Space   Used Autos Params    Refs
 ---------------------------------------------------------------------------------
 (5) _INTERRUPT_InterruptManager                           1     1      0       0
                                              1 COMMON     1     1      0
                _EUSART_Transmit_ISR
 ---------------------------------------------------------------------------------
 (6) _EUSART_Transmit_ISR                                  1     1      0       0
                                              0 COMMON     1     1      0
 ---------------------------------------------------------------------------------
 Estimated maximum stack depth 6
 ---------------------------------------------------------------------------------

 Call Graph Graphs:

 _main (ROOT)
   _EnviarDatos2ESP
     _EUSART_Write
     _printf
       _putch
         _EUSART_Write
   _MedirADCs
   _SYSTEM_Initialize
     _EUSART_Initialize
     _OSCILLATOR_Initialize
     _PIN_MANAGER_Initialize
     _WDT_Initialize

 _INTERRUPT_InterruptManager (ROOT)
   _EUSART_Transmit_ISR

 Address spaces:
Name               Size   Autos  Total    Cost      Usage
BIGRAM             7F0      0       0       0        0.0%
EEDATA             100      0       0       0        0.0%
NULL                 0      0       0       0        0.0%
CODE                 0      0       0       0        0.0%
BITCOMMON            E      0       0       1        0.0%
BITSFR0              0      0       0       1        0.0%
SFR0                 0      0       0       1        0.0%
COMMON               E      A       C       2       85.7%
BITSFR1              0      0       0       2        0.0%
SFR1                 0      0       0       2        0.0%
BITSFR2              0      0       0       3        0.0%
SFR2                 0      0       0       3        0.0%
STACK                0      0       0       3        0.0%
BITBANK0            50      0       0       4        0.0%
BITSFR3              0      0       0       4        0.0%
SFR3                 0      0       0       4        0.0%
BANK0               50     13      35       5       66.3%
BITSFR4              0      0       0       5        0.0%
SFR4                 0      0       0       5        0.0%
BITBANK1            50      0       0       6        0.0%
BITSFR5              0      0       0       6        0.0%
SFR5                 0      0       0       6        0.0%
BANK1               50      0      40       7       80.0%
BITSFR6              0      0       0       7        0.0%
SFR6                 0      0       0       7        0.0%
BITBANK2            50      0       0       8        0.0%
BITSFR7              0      0       0       8        0.0%
SFR7                 0      0       0       8        0.0%
BANK2               50      0       0       9        0.0%
BITSFR8              0      0       0       9        0.0%
SFR8                 0      0       0       9        0.0%
BITBANK3            50      0       0      10        0.0%
BITSFR9              0      0       0      10        0.0%
SFR9                 0      0       0      10        0.0%
BANK3               50      0       0      11        0.0%
BITSFR10             0      0       0      11        0.0%
SFR10                0      0       0      11        0.0%
BITBANK4            50      0       0      12        0.0%
BITSFR11             0      0       0      12        0.0%
SFR11                0      0       0      12        0.0%
BANK4               50      0       0      13        0.0%
BITSFR12             0      0       0      13        0.0%
SFR12                0      0       0      13        0.0%
BITSFR13             0      0       0      14        0.0%
SFR13                0      0       0      14        0.0%
ABS                  0      0      81      14        0.0%
BITBANK5            50      0       0      15        0.0%
BITSFR14             0      0       0      15        0.0%
SFR14                0      0       0      15        0.0%
BANK5               50      0       0      16        0.0%
BITSFR15             0      0       0      16        0.0%
SFR15                0      0       0      16        0.0%
BITBANK6            50      0       0      17        0.0%
BITSFR16             0      0       0      17        0.0%
SFR16                0      0       0      17        0.0%
BANK6               50      0       0      18        0.0%
BITSFR17             0      0       0      18        0.0%
SFR17                0      0       0      18        0.0%
BITBANK7            50      0       0      19        0.0%
BITSFR18             0      0       0      19        0.0%
SFR18                0      0       0      19        0.0%
BANK7               50      0       0      20        0.0%
BITSFR19             0      0       0      20        0.0%
SFR19                0      0       0      20        0.0%
BITBANK8            50      0       0      21        0.0%
BITSFR20             0      0       0      21        0.0%
SFR20                0      0       0      21        0.0%
BANK8               50      0       0      22        0.0%
BITSFR21             0      0       0      22        0.0%
SFR21                0      0       0      22        0.0%
BITBANK9            50      0       0      23        0.0%
BITSFR22             0      0       0      23        0.0%
SFR22                0      0       0      23        0.0%
BANK9               50      0       0      24        0.0%
BITSFR23             0      0       0      24        0.0%
SFR23                0      0       0      24        0.0%
BITBANK10           50      0       0      25        0.0%
BITSFR24             0      0       0      25        0.0%
SFR24                0      0       0      25        0.0%
BANK10              50      0       0      26        0.0%
BITSFR25             0      0       0      26        0.0%
SFR25                0      0       0      26        0.0%
BITBANK11           50      0       0      27        0.0%
BITSFR26             0      0       0      27        0.0%
SFR26                0      0       0      27        0.0%
BITSFR27             0      0       0      28        0.0%
SFR27                0      0       0      28        0.0%
DATA                 0      0      81      28        0.0%
BANK11              50      0       0      29        0.0%
BITSFR28             0      0       0      29        0.0%
SFR28                0      0       0      29        0.0%
BITBANK12           50      0       0      30        0.0%
BITSFR29             0      0       0      30        0.0%
SFR29                0      0       0      30        0.0%
BANK12              50      0       0      31        0.0%
BITSFR30             0      0       0      31        0.0%
SFR30                0      0       0      31        0.0%
BITBANK13           50      0       0      32        0.0%
BITSFR31             0      0       0      32        0.0%
SFR31                0      0       0      32        0.0%
BANK13              50      0       0      33        0.0%
BITBANK14           50      0       0      34        0.0%
BANK14              50      0       0      35        0.0%
BITBANK15           50      0       0      36        0.0%
BANK15              50      0       0      37        0.0%
BITBANK16           50      0       0      38        0.0%
BANK16              50      0       0      39        0.0%
BITBANK17           50      0       0      40        0.0%
BANK17              50      0       0      41        0.0%
BITBANK18           50      0       0      42        0.0%
BANK18              50      0       0      43        0.0%
BITBANK19           50      0       0      44        0.0%
BANK19              50      0       0      45        0.0%
BITBANK20           50      0       0      46        0.0%
BANK20              50      0       0      47        0.0%
BITBANK21           50      0       0      48        0.0%
BANK21              50      0       0      49        0.0%
BITBANK22           50      0       0      50        0.0%
BANK22              50      0       0      51        0.0%
BITBANK23           50      0       0      52        0.0%
BANK23              50      0       0      53        0.0%
BITBANK24           50      0       0      54        0.0%
BANK24              50      0       0      55        0.0%
BITBANK25           20      0       0      56        0.0%
BANK25              20      0       0      57        0.0%


Microchip Technology PIC Macro Assembler V1.45 build -152302408 
Symbol Table                                                                                   Tue Jun 11 13:49:56 2019

                        __CFG_CP$OFF 0000                                   l99 017F  
                        __CFG_LVP$ON 0000                                  l264 0112  
                                l259 00DE                                  u315 00FD  
                       __CFG_CPD$OFF 0000                                  u547 00D9  
                                u557 010C                         __CFG_BORV$LO 0000  
                                wreg 0009                         __CFG_IESO$ON 0000  
            __end_of_EnviarDatos2ESP 0173                                 l1231 0174  
                               l1245 0193                                 l1253 019B  
                               l1275 0154                                 l1269 0140  
                               l1297 01E9                                 _ADON 04E8  
                               STR_1 01FC                                 _LATA 010C  
                               _LATB 010D                                 _LATC 010E  
                               i1l28 002C                                 _PCON 0096  
                               _WPUA 020C                                 _WPUB 020D  
                               _WPUC 020E                                 _WPUE 0210  
                       __CFG_WRT$OFF 0000                        __CFG_FCMEN$ON 0000  
                               _main 01E4                                 fsr0h 0005  
                               fsr1h 0007                                 indf0 0000  
                               fsr0l 0004                                 indf1 0001  
                               fsr1l 0006                                 btemp 007E  
                      __CFG_BOREN$ON 0000                                 start 0030  
                      __CFG_MCLRE$ON 0000                        __CFG_PLLEN$ON 0000  
                      ?_EUSART_Write 0070       __size_of_OSCILLATOR_Initialize 0008  
      __end_of_OSCILLATOR_Initialize 0218                                ?_main 0070  
                      __CFG_WDTE$OFF 0000                                _T1CON 0018  
                              i1l111 01CD                                _TMR1H 0017  
                              _TMR1L 0016                                _PORTA 000C  
                              _PORTB 000D                                _PORTC 000E  
                              _TRISA 008C                                _TRISB 008D  
                              _TRISC 008E                                _TRISE 0090  
                     _WDT_Initialize 0229                                _putch 0224  
            EnviarDatos2ESP@checksum 003C                                status 0003  
                              wtemp0 007E                      __initialization 0032  
        MedirADCs@MedicionesActuales 0038                         __end_of_main 01F0  
                     ??_EUSART_Write 0072                       __CFG_LPBOR$OFF 0000  
        ?_INTERRUPT_InterruptManager 0070                               ??_main 007A  
             __end_of_WDT_Initialize 022D                     ?_EnviarDatos2ESP 0070  
                 __size_of_MedirADCs 006C                               _ADRESH 009C  
                             _ADRESL 009B                               _ANSELA 018C  
                             ?_putch 0070                               _ANSELB 018D  
                             _ANSELC 018E                               _BORCON 0116  
                             _RC1REG 0199                               _RC1STA 019D  
                             i1l1205 0014                               i1l1215 0024  
                             _INTCON 000B                               _OSCCON 0099  
                             _TMR1IE 0488                               _TMR1IF 0088  
                             _TX1REG 019A                               _WDTCON 0097  
                             _TX1STA 019E                               _TRISC6 0476  
                             _TRISC7 0477                       __CFG_PWRTE$OFF 0000  
                     __CFG_STVREN$ON 0000                  _EUSART_Transmit_ISR 01B3  
                             _printf 0196                      ?_WDT_Initialize 0070  
               ?_EUSART_Transmit_ISR 0070                          _EnviarDatos 0034  
                  _SYSTEM_Initialize 01F0              __end_of__initialization 004F  
                 ?_SYSTEM_Initialize 0070                       __pcstackCOMMON 0070  
                       __pidataBANK0 0207                  ??_SYSTEM_Initialize 0073  
                  __end_of_MedirADCs 0130                        __end_of_putch 0229  
                     _OPTION_REGbits 0095            __end_of_SYSTEM_Initialize 01FC  
              ??_EUSART_Transmit_ISR 0070                              ??_putch 0074  
                         __pbssBANK0 0020                           __pbssBANK1 00A0  
               __end_of_EUSART_Write 0196                      __CFG_VCAPEN$OFF 0000  
                         __pmaintext 01E4                           __pintentry 0004  
                            _APFCON1 011D                              _APFCON2 011C  
                            ?_printf 0075                              _SP1BRGH 019C  
                            _SP1BRGL 019B                              _OSCSTAT 009A  
                            _OSCTUNE 0098                              __ptext1 01F0  
                            __ptext2 0229                              __ptext3 0053  
                            __ptext4 0210                              __ptext5 01D0  
                            __ptext6 00C4                              __ptext7 0130  
                            __ptext8 0196                              __ptext9 0224  
                    __size_of_printf 001D                            _T1CONbits 0018  
              _OSCILLATOR_Initialize 0210             ??_PIN_MANAGER_Initialize 0072  
         __size_of_SYSTEM_Initialize 000C                              clrloop0 021F  
                   _RealizarMedicion 0036                 end_of_initialization 004F  
                            init_ram 0218                              initloop 0219  
                  _EUSART_Initialize 01D0                   ?_EUSART_Initialize 0070  
                            printf@c 0039                              printf@f 0075  
                ??_EUSART_Initialize 0072                     ??_WDT_Initialize 0072  
                   __CFG_FOSC$INTOSC 0000                            _TRISAbits 008C  
                          _TRISBbits 008D                __size_of_EUSART_Write 0023  
          __end_of_EUSART_Initialize 01E4             __size_of_EnviarDatos2ESP 0043  
                       _EUSART_Write 0173               ?_OSCILLATOR_Initialize 0070  
                          _MedirADCs 00C4                       __end_of_printf 01B3  
                start_initialization 0032      __size_of_PIN_MANAGER_Initialize 0071  
                        putch@txData 0074                          __pdataBANK0 004B  
                           ??_printf 0077                           ?_MedirADCs 0070  
        __end_of_EUSART_Transmit_ISR 01D0                          __pbssCOMMON 007A  
                          ___latbits 0003                        __pcstackBANK0 0038  
         __size_of_EUSART_Initialize 0014                            __pnvBANK0 0054  
             _PIN_MANAGER_Initialize 0053                    ??_EnviarDatos2ESP 003A  
                       _eusartTxHead 007B                         _eusartTxTail 007A  
       ??_INTERRUPT_InterruptManager 0071              _eusartTxBufferRemaining 0054  
                           _BAUD1CON 019F                       __size_of_putch 0005  
                     _eusartTxBuffer 00A0                            clear_ram0 021E  
                           _PIE1bits 0091  __size_of_INTERRUPT_InterruptManager 002C  
                           _PIR1bits 0011                           _ADCON0bits 009D  
                         _ADCON1bits 009E                           _ADCON2bits 009F  
                        ??_MedirADCs 0072                             _DatosADC 0020  
            ??_OSCILLATOR_Initialize 0072                           _ANSELAbits 018C  
                         _ANSELBbits 018D                           _ANSELCbits 018E  
                 _OrdenConversionADC 004B                     EnviarDatos2ESP@i 003E  
                           __ptext10 0173                             __ptext12 01B3  
                      __size_of_main 000C                           _RC1STAbits 019D  
                           int$flags 007E   __end_of_INTERRUPT_InterruptManager 0030  
         _INTERRUPT_InterruptManager 0004                           _INTCONbits 000B  
                         _FVRCONbits 0117              __size_of_WDT_Initialize 0004  
                           intlevel1 0000                      _EnviarDatos2ESP 0130  
            ?_PIN_MANAGER_Initialize 0070                    __CFG_CLKOUTEN$OFF 0000  
                           printf@ap 0038                        __pstringtext1 01FC  
                      __pstringtext2 0000                          _VREGCONbits 0197  
                 EUSART_Write@txData 0073         __size_of_EUSART_Transmit_ISR 001D  
     __end_of_PIN_MANAGER_Initialize 00C4                           MedirADCs@i 004A  
